---
triple:          'arm64-apple-darwin'
binary-path:     'test/build_graph'
relocations:
  - { offsetInCU: 0x37, offset: 0x37, size: 0x8, addend: 0x0, symName: __MergedGlobals, symObjAddr: 0x2D9DC8, symBinAddr: 0x100044EE0, symSize: 0x0 }
  - { offsetInCU: 0x99, offset: 0x99, size: 0x8, addend: 0x0, symName: __MergedGlobals, symObjAddr: 0x2D9DC8, symBinAddr: 0x100044EE0, symSize: 0x0 }
  - { offsetInCU: 0x1E592, offset: 0x1E592, size: 0x8, addend: 0x0, symName: __ZNSt3__124__put_character_sequenceB8ue170006IcNS_11char_traitsIcEEEERNS_13basic_ostreamIT_T0_EES7_PKS4_m, symObjAddr: 0x378, symBinAddr: 0x100002BC0, symSize: 0x164 }
  - { offsetInCU: 0x1FC28, offset: 0x1FC28, size: 0x8, addend: 0x0, symName: __ZNSt3__120__throw_length_errorB8ue170006EPKc, symObjAddr: 0x14, symBinAddr: 0x10000285C, symSize: 0x50 }
  - { offsetInCU: 0x20788, offset: 0x20788, size: 0x8, addend: 0x0, symName: __ZNSt3__116__pad_and_outputB8ue170006IcNS_11char_traitsIcEEEENS_19ostreambuf_iteratorIT_T0_EES6_PKS4_S8_S8_RNS_8ios_baseES4_, symObjAddr: 0x4DC, symBinAddr: 0x100002D24, symSize: 0x194 }
  - { offsetInCU: 0x9BC7B, offset: 0x9BC7B, size: 0x8, addend: 0x0, symName: __ZNKSt3__112basic_stringIcNS_11char_traitsIcEENS_9allocatorIcEEE20__throw_length_errorB8ue170006Ev, symObjAddr: 0x0, symBinAddr: 0x100002848, symSize: 0x14 }
  - { offsetInCU: 0x9BCA5, offset: 0x9BCA5, size: 0x8, addend: 0x0, symName: __ZNSt3__120__throw_length_errorB8ue170006EPKc, symObjAddr: 0x14, symBinAddr: 0x10000285C, symSize: 0x50 }
  - { offsetInCU: 0x9BCB0, offset: 0x9BCB0, size: 0x8, addend: 0x0, symName: __ZNSt12length_errorC1B8ue170006EPKc, symObjAddr: 0x64, symBinAddr: 0x1000028AC, symSize: 0x24 }
  - { offsetInCU: 0x9C0E2, offset: 0x9C0E2, size: 0x8, addend: 0x0, symName: _main, symObjAddr: 0x94, symBinAddr: 0x1000028DC, symSize: 0x2E4 }
  - { offsetInCU: 0x37, offset: 0xA35A3, size: 0x8, addend: 0x0, symName: __MergedGlobals, symObjAddr: 0x323EA0, symBinAddr: 0x100044F00, symSize: 0x0 }
  - { offsetInCU: 0x68, offset: 0xA35D4, size: 0x8, addend: 0x0, symName: __MergedGlobals, symObjAddr: 0x323EA0, symBinAddr: 0x100044F00, symSize: 0x0 }
  - { offsetInCU: 0x884F, offset: 0xABDBB, size: 0x8, addend: 0x0, symName: __ZNSt3__125__throw_bad_function_callB8ue170006Ev, symObjAddr: 0x8C00, symBinAddr: 0x100003290, symSize: 0x34 }
  - { offsetInCU: 0x8997, offset: 0xABF03, size: 0x8, addend: 0x0, symName: __ZNSt3__1lsB8ue170006INS_11char_traitsIcEEEERNS_13basic_ostreamIcT_EES6_PKc, symObjAddr: 0x4360, symBinAddr: 0x100002F44, symSize: 0x34 }
  - { offsetInCU: 0x89FA, offset: 0xABF66, size: 0x8, addend: 0x0, symName: __ZNSt3__14endlB8ue170006IcNS_11char_traitsIcEEEERNS_13basic_ostreamIT_T0_EES7_, symObjAddr: 0x4394, symBinAddr: 0x100002F78, symSize: 0x90 }
  - { offsetInCU: 0x8A11, offset: 0xABF7D, size: 0x8, addend: 0x0, symName: __ZNSt3__14endlB8ue170006IcNS_11char_traitsIcEEEERNS_13basic_ostreamIT_T0_EES7_, symObjAddr: 0x4394, symBinAddr: 0x100002F78, symSize: 0x90 }
  - { offsetInCU: 0x909E, offset: 0xAC60A, size: 0x8, addend: 0x0, symName: __ZNSt3__120__throw_out_of_rangeB8ue170006EPKc, symObjAddr: 0x5BF4, symBinAddr: 0x100003128, symSize: 0x50 }
  - { offsetInCU: 0x9228, offset: 0xAC794, size: 0x8, addend: 0x0, symName: __ZSt28__throw_bad_array_new_lengthB8ue170006v, symObjAddr: 0x30B0, symBinAddr: 0x100002F1C, symSize: 0x28 }
  - { offsetInCU: 0x936A, offset: 0xAC8D6, size: 0x8, addend: 0x0, symName: __MergedGlobals, symObjAddr: 0x323EA0, symBinAddr: 0x100044F00, symSize: 0x0 }
  - { offsetInCU: 0x9385, offset: 0xAC8F1, size: 0x8, addend: 0x0, symName: __MergedGlobals, symObjAddr: 0x323EA0, symBinAddr: 0x100044F00, symSize: 0x0 }
  - { offsetInCU: 0xDDCA, offset: 0xB1336, size: 0x8, addend: 0x0, symName: __ZN6google8protobuf8internal4NewTIN2vg7MappingEEEPvPNS0_5ArenaE, symObjAddr: 0x5B0C, symBinAddr: 0x100003040, symSize: 0x64 }
  - { offsetInCU: 0xDF16, offset: 0xB1482, size: 0x8, addend: 0x0, symName: __ZN6google8protobuf8internal4NewTIN2vg4EditEEEPvPNS0_5ArenaE, symObjAddr: 0x5B7C, symBinAddr: 0x1000030B0, symSize: 0x64 }
  - { offsetInCU: 0x1BC94, offset: 0xBF200, size: 0x8, addend: 0x0, symName: __ZNK6google8protobuf8internal20RepeatedPtrFieldBase3GetINS0_16RepeatedPtrFieldIN2vg7MappingEE11TypeHandlerEEERKNT_4TypeEi, symObjAddr: 0x8B20, symBinAddr: 0x1000031B0, symSize: 0x70 }
  - { offsetInCU: 0x1BE0E, offset: 0xBF37A, size: 0x8, addend: 0x0, symName: __ZNK6google8protobuf8internal20RepeatedPtrFieldBase3GetINS0_16RepeatedPtrFieldIN2vg4EditEE11TypeHandlerEEERKNT_4TypeEi, symObjAddr: 0x8B90, symBinAddr: 0x100003220, symSize: 0x70 }
  - { offsetInCU: 0x1BE2E, offset: 0xBF39A, size: 0x8, addend: 0x0, symName: __ZNK6google8protobuf8internal20RepeatedPtrFieldBase3GetINS0_16RepeatedPtrFieldIN2vg4EditEE11TypeHandlerEEERKNT_4TypeEi, symObjAddr: 0x8B90, symBinAddr: 0x100003220, symSize: 0x70 }
  - { offsetInCU: 0x1BFA8, offset: 0xBF514, size: 0x8, addend: 0x0, symName: __ZNSt3__125__throw_bad_function_callB8ue170006Ev, symObjAddr: 0x8C00, symBinAddr: 0x100003290, symSize: 0x34 }
  - { offsetInCU: 0x1C558, offset: 0xBFAC4, size: 0x8, addend: 0x0, symName: __ZNKSt3__16vectorIN11handlegraph8handle_tENS_9allocatorIS2_EEE20__throw_length_errorB8ue170006Ev, symObjAddr: 0x4BC8, symBinAddr: 0x100003008, symSize: 0x14 }
  - { offsetInCU: 0x1C58D, offset: 0xBFAF9, size: 0x8, addend: 0x0, symName: __ZN6google8protobuf16RepeatedPtrFieldIN2vg7MappingEE3AddEv, symObjAddr: 0x5B00, symBinAddr: 0x100003034, symSize: 0xC }
  - { offsetInCU: 0x1C5B7, offset: 0xBFB23, size: 0x8, addend: 0x0, symName: __ZN6google8protobuf16RepeatedPtrFieldIN2vg7MappingEE3AddEv, symObjAddr: 0x5B00, symBinAddr: 0x100003034, symSize: 0xC }
  - { offsetInCU: 0x1C5D1, offset: 0xBFB3D, size: 0x8, addend: 0x0, symName: __ZN6google8protobuf16RepeatedPtrFieldIN2vg4EditEE3AddEv, symObjAddr: 0x5B70, symBinAddr: 0x1000030A4, symSize: 0xC }
  - { offsetInCU: 0x1C5FB, offset: 0xBFB67, size: 0x8, addend: 0x0, symName: __ZN6google8protobuf16RepeatedPtrFieldIN2vg4EditEE3AddEv, symObjAddr: 0x5B70, symBinAddr: 0x1000030A4, symSize: 0xC }
  - { offsetInCU: 0x1C615, offset: 0xBFB81, size: 0x8, addend: 0x0, symName: __ZNKSt3__112basic_stringIcNS_11char_traitsIcEENS_9allocatorIcEEE20__throw_out_of_rangeB8ue170006Ev, symObjAddr: 0x5BE0, symBinAddr: 0x100003114, symSize: 0x14 }
  - { offsetInCU: 0x1C63F, offset: 0xBFBAB, size: 0x8, addend: 0x0, symName: __ZNSt3__120__throw_out_of_rangeB8ue170006EPKc, symObjAddr: 0x5BF4, symBinAddr: 0x100003128, symSize: 0x50 }
  - { offsetInCU: 0x1C64A, offset: 0xBFBB6, size: 0x8, addend: 0x0, symName: __ZNKSt3__112basic_stringIcNS_11char_traitsIcEENS_9allocatorIcEEEcvNS_17basic_string_viewIcS2_EEB8ue170006Ev, symObjAddr: 0x5AE8, symBinAddr: 0x10000301C, symSize: 0x18 }
  - { offsetInCU: 0x1C674, offset: 0xBFBE0, size: 0x8, addend: 0x0, symName: __ZNKSt3__112basic_stringIcNS_11char_traitsIcEENS_9allocatorIcEEEcvNS_17basic_string_viewIcS2_EEB8ue170006Ev, symObjAddr: 0x5AE8, symBinAddr: 0x10000301C, symSize: 0x18 }
  - { offsetInCU: 0x1C690, offset: 0xBFBFC, size: 0x8, addend: 0x0, symName: __ZNKSt3__112basic_stringIcNS_11char_traitsIcEENS_9allocatorIcEEEcvNS_17basic_string_viewIcS2_EEB8ue170006Ev, symObjAddr: 0x5AE8, symBinAddr: 0x10000301C, symSize: 0x18 }
  - { offsetInCU: 0x1C6AC, offset: 0xBFC18, size: 0x8, addend: 0x0, symName: __ZNKSt3__112basic_stringIcNS_11char_traitsIcEENS_9allocatorIcEEEcvNS_17basic_string_viewIcS2_EEB8ue170006Ev, symObjAddr: 0x5AE8, symBinAddr: 0x10000301C, symSize: 0x18 }
  - { offsetInCU: 0x1C92A, offset: 0xBFE96, size: 0x8, addend: 0x0, symName: __ZNSt12out_of_rangeC1B8ue170006EPKc, symObjAddr: 0x5C44, symBinAddr: 0x100003178, symSize: 0x24 }
  - { offsetInCU: 0x1C9CE, offset: 0xBFF3A, size: 0x8, addend: 0x0, symName: __ZNKSt3__16vectorIiNS_9allocatorIiEEE20__throw_length_errorB8ue170006Ev, symObjAddr: 0x814C, symBinAddr: 0x10000319C, symSize: 0x14 }
  - { offsetInCU: 0x1CA81, offset: 0xBFFED, size: 0x8, addend: 0x0, symName: __ZNK6google8protobuf8internal20RepeatedPtrFieldBase3GetINS0_16RepeatedPtrFieldIN2vg7MappingEE11TypeHandlerEEERKNT_4TypeEi.cold.1, symObjAddr: 0x11B90, symBinAddr: 0x1000295AC, symSize: 0x3C }
  - { offsetInCU: 0x1CAD8, offset: 0xC0044, size: 0x8, addend: 0x0, symName: __ZNK6google8protobuf8internal20RepeatedPtrFieldBase3GetINS0_16RepeatedPtrFieldIN2vg7MappingEE11TypeHandlerEEERKNT_4TypeEi.cold.3, symObjAddr: 0x11C08, symBinAddr: 0x100029624, symSize: 0x40 }
  - { offsetInCU: 0x1CB2F, offset: 0xC009B, size: 0x8, addend: 0x0, symName: __ZNK6google8protobuf8internal20RepeatedPtrFieldBase3GetINS0_16RepeatedPtrFieldIN2vg7MappingEE11TypeHandlerEEERKNT_4TypeEi.cold.2, symObjAddr: 0x11BCC, symBinAddr: 0x1000295E8, symSize: 0x3C }
  - { offsetInCU: 0x1CBBA, offset: 0xC0126, size: 0x8, addend: 0x0, symName: __ZNK6google8protobuf8internal20RepeatedPtrFieldBase3GetINS0_16RepeatedPtrFieldIN2vg4EditEE11TypeHandlerEEERKNT_4TypeEi.cold.1, symObjAddr: 0x11C48, symBinAddr: 0x100029664, symSize: 0x3C }
  - { offsetInCU: 0x1CC11, offset: 0xC017D, size: 0x8, addend: 0x0, symName: __ZNK6google8protobuf8internal20RepeatedPtrFieldBase3GetINS0_16RepeatedPtrFieldIN2vg4EditEE11TypeHandlerEEERKNT_4TypeEi.cold.3, symObjAddr: 0x11CC0, symBinAddr: 0x1000296DC, symSize: 0x40 }
  - { offsetInCU: 0x1CC68, offset: 0xC01D4, size: 0x8, addend: 0x0, symName: __ZNK6google8protobuf8internal20RepeatedPtrFieldBase3GetINS0_16RepeatedPtrFieldIN2vg4EditEE11TypeHandlerEEERKNT_4TypeEi.cold.2, symObjAddr: 0x11C84, symBinAddr: 0x1000296A0, symSize: 0x3C }
  - { offsetInCU: 0x1CD4F, offset: 0xC02BB, size: 0x8, addend: 0x0, symName: __ZNSt3__117bad_function_callD1Ev, symObjAddr: 0x8C34, symBinAddr: 0x1000032C4, symSize: 0x4 }
  - { offsetInCU: 0x1CD72, offset: 0xC02DE, size: 0x8, addend: 0x0, symName: __ZNSt3__117bad_function_callD1Ev, symObjAddr: 0x8C34, symBinAddr: 0x1000032C4, symSize: 0x4 }
  - { offsetInCU: 0x1CDA5, offset: 0xC0311, size: 0x8, addend: 0x0, symName: __ZNSt3__117bad_function_callD0Ev, symObjAddr: 0x8C38, symBinAddr: 0x1000032C8, symSize: 0x14 }
  - { offsetInCU: 0x1CE3A, offset: 0xC03A6, size: 0x8, addend: 0x0, symName: _OUTLINED_FUNCTION_0, symObjAddr: 0x12124, symBinAddr: 0x1000032DC, symSize: 0x8 }
  - { offsetInCU: 0x1CE52, offset: 0xC03BE, size: 0x8, addend: 0x0, symName: _OUTLINED_FUNCTION_1, symObjAddr: 0x1212C, symBinAddr: 0x1000032E4, symSize: 0xC }
  - { offsetInCU: 0x1CE6A, offset: 0xC03D6, size: 0x8, addend: 0x0, symName: _OUTLINED_FUNCTION_2, symObjAddr: 0x12138, symBinAddr: 0x1000032F0, symSize: 0xC }
  - { offsetInCU: 0x1CE82, offset: 0xC03EE, size: 0x8, addend: 0x0, symName: _OUTLINED_FUNCTION_3, symObjAddr: 0x12144, symBinAddr: 0x1000032FC, symSize: 0xC }
  - { offsetInCU: 0x37, offset: 0xC0441, size: 0x8, addend: 0x0, symName: __MergedGlobals, symObjAddr: 0x408B60, symBinAddr: 0x100044F30, symSize: 0x0 }
  - { offsetInCU: 0x68, offset: 0xC0472, size: 0x8, addend: 0x0, symName: __MergedGlobals, symObjAddr: 0x408B60, symBinAddr: 0x100044F30, symSize: 0x0 }
  - { offsetInCU: 0x72A5, offset: 0xC76AF, size: 0x8, addend: 0x0, symName: __ZNSt3__127__tree_balance_after_insertB8ue170006IPNS_16__tree_node_baseIPvEEEEvT_S5_, symObjAddr: 0x6538, symBinAddr: 0x100003394, symSize: 0x1B4 }
  - { offsetInCU: 0x1A1BE, offset: 0xDA5C8, size: 0x8, addend: 0x0, symName: __ZN6google8protobuf8internal20RepeatedPtrFieldBase13ClearNonEmptyINS1_18GenericTypeHandlerINS0_11MessageLiteEEEEEvv, symObjAddr: 0x21650, symBinAddr: 0x1000039E4, symSize: 0xA0 }
  - { offsetInCU: 0x1A32A, offset: 0xDA734, size: 0x8, addend: 0x0, symName: __ZNKSt3__121__murmur2_or_cityhashImLm64EEclB8ue170006EPKvm, symObjAddr: 0x20E9C, symBinAddr: 0x100003548, symSize: 0x49C }
  - { offsetInCU: 0x37, offset: 0xDB3BA, size: 0x8, addend: 0x0, symName: __MergedGlobals, symObjAddr: 0x6E1410, symBinAddr: 0x100044F50, symSize: 0x0 }
  - { offsetInCU: 0x2920, offset: 0xDDCA3, size: 0x8, addend: 0x0, symName: __MergedGlobals, symObjAddr: 0x6E1410, symBinAddr: 0x100044F50, symSize: 0x0 }
  - { offsetInCU: 0x31C87, offset: 0x10D00A, size: 0x8, addend: 0x0, symName: __ZNSt3__16__treeINS_12__value_typeINS_12basic_stringIcNS_11char_traitsIcEENS_9allocatorIcEEEExEENS_19__map_value_compareIS7_S8_NS_4lessIS7_EELb1EEENS5_IS8_EEE7destroyEPNS_11__tree_nodeIS8_PvEE, symObjAddr: 0x9DE4, symBinAddr: 0x100003F3C, symSize: 0x60 }
  - { offsetInCU: 0x31F75, offset: 0x10D2F8, size: 0x8, addend: 0x0, symName: __ZNSt3__112__hash_tableINS_17__hash_value_typeINS_12basic_stringIcNS_11char_traitsIcEENS_9allocatorIcEEEENS_10type_indexEEENS_22__unordered_map_hasherIS7_S9_NS_4hashIS7_EENS_8equal_toIS7_EELb1EEENS_21__unordered_map_equalIS7_S9_SE_SC_Lb1EEENS5_IS9_EEE4findIS7_EENS_15__hash_iteratorIPNS_11__hash_nodeIS9_PvEEEERKT_, symObjAddr: 0x3244, symBinAddr: 0x100003AE8, symSize: 0x23C }
  - { offsetInCU: 0x32BAF, offset: 0x10DF32, size: 0x8, addend: 0x0, symName: __ZNSt3__112__hash_tableINS_17__hash_value_typeINS_10type_indexENS_12basic_stringIcNS_11char_traitsIcEENS_9allocatorIcEEEEEENS_22__unordered_map_hasherIS2_S9_NS_4hashIS2_EENS_8equal_toIS2_EELb1EEENS_21__unordered_map_equalIS2_S9_SE_SC_Lb1EEENS6_IS9_EEE4findIS2_EENS_15__hash_iteratorIPNS_11__hash_nodeIS9_PvEEEERKT_, symObjAddr: 0x3FCC, symBinAddr: 0x100003D24, symSize: 0x218 }
  - { offsetInCU: 0x3354, offset: 0x1117C0, size: 0x8, addend: 0x0, symName: __ZN2vg26NoAlignmentInBandException7messageE, symObjAddr: 0x55CF38, symBinAddr: 0x100045200, symSize: 0x0 }
  - { offsetInCU: 0x30, offset: 0x113A7B, size: 0x8, addend: 0x0, symName: __MergedGlobals, symObjAddr: 0x4CED10, symBinAddr: 0x100044F70, symSize: 0x0 }
  - { offsetInCU: 0x61, offset: 0x113AAC, size: 0x8, addend: 0x0, symName: __MergedGlobals, symObjAddr: 0x4CED10, symBinAddr: 0x100044F70, symSize: 0x0 }
  - { offsetInCU: 0x30, offset: 0x123BBD, size: 0x8, addend: 0x0, symName: __MergedGlobals, symObjAddr: 0x1CF408, symBinAddr: 0x100044F90, symSize: 0x0 }
  - { offsetInCU: 0x61, offset: 0x123BEE, size: 0x8, addend: 0x0, symName: __MergedGlobals, symObjAddr: 0x1CF408, symBinAddr: 0x100044F90, symSize: 0x0 }
  - { offsetInCU: 0x30, offset: 0x12A5BF, size: 0x8, addend: 0x0, symName: __ZL11init_ram_fs, symObjAddr: 0x1B3554, symBinAddr: 0x100044FB0, symSize: 0x0 }
  - { offsetInCU: 0x37, offset: 0x12DE92, size: 0x8, addend: 0x0, symName: __ZL11init_ram_fs, symObjAddr: 0xFE228, symBinAddr: 0x100044FB1, symSize: 0x0 }
  - { offsetInCU: 0x420F, offset: 0x13206A, size: 0x8, addend: 0x0, symName: __ZNKSt3__16vectorINS_4pairIxbEENS_9allocatorIS2_EEE20__throw_length_errorB8ue170006Ev, symObjAddr: 0x4CF4, symBinAddr: 0x100004170, symSize: 0x14 }
  - { offsetInCU: 0x37, offset: 0x1320D5, size: 0x8, addend: 0x0, symName: __MergedGlobals, symObjAddr: 0x3B7118, symBinAddr: 0x100044FB8, symSize: 0x0 }
  - { offsetInCU: 0x2A2F, offset: 0x134ACD, size: 0x8, addend: 0x0, symName: __MergedGlobals, symObjAddr: 0x3B7118, symBinAddr: 0x100044FB8, symSize: 0x0 }
  - { offsetInCU: 0x21DBD, offset: 0x153E5B, size: 0x8, addend: 0x0, symName: __ZN4sdsl14memory_manager8free_memEPy, symObjAddr: 0x2264, symBinAddr: 0x100004D70, symSize: 0x15C }
  - { offsetInCU: 0x22014, offset: 0x1540B2, size: 0x8, addend: 0x0, symName: __ZN4sdsl14memory_monitor6recordEx, symObjAddr: 0xAD8, symBinAddr: 0x10000434C, symSize: 0x374 }
  - { offsetInCU: 0x23031, offset: 0x1550CF, size: 0x8, addend: 0x0, symName: __ZN4sdsl14memory_manager11realloc_memEPym, symObjAddr: 0x94C, symBinAddr: 0x1000041C0, symSize: 0x18C }
  - { offsetInCU: 0x23D13, offset: 0x155DB1, size: 0x8, addend: 0x0, symName: __ZNKSt3__16vectorIN4sdsl14memory_monitor8mm_allocENS_9allocatorIS3_EEE20__throw_length_errorB8ue170006Ev, symObjAddr: 0x14E8, symBinAddr: 0x100004D5C, symSize: 0x14 }
  - { offsetInCU: 0x23DEB, offset: 0x155E89, size: 0x8, addend: 0x0, symName: __ZN4sdsl18hugepage_allocatorD1Ev, symObjAddr: 0xE4C, symBinAddr: 0x1000046C0, symSize: 0x2C }
  - { offsetInCU: 0x23ED2, offset: 0x155F70, size: 0x8, addend: 0x0, symName: __ZNSt3__16__treeINS_12__value_typeImPN4sdsl8mm_blockEEENS_19__map_value_compareImS5_NS_4lessImEELb1EEENS_9allocatorIS5_EEE7destroyEPNS_11__tree_nodeIS5_PvEE, symObjAddr: 0xE78, symBinAddr: 0x1000046EC, symSize: 0x40 }
  - { offsetInCU: 0x2406F, offset: 0x15610D, size: 0x8, addend: 0x0, symName: __ZN4sdsl14memory_monitorD1Ev, symObjAddr: 0xEB8, symBinAddr: 0x10000472C, symSize: 0x4 }
  - { offsetInCU: 0x2409A, offset: 0x156138, size: 0x8, addend: 0x0, symName: __ZNSt3__15dequeIN4sdsl14memory_monitor8mm_eventENS_9allocatorIS3_EEE5clearEv, symObjAddr: 0xEBC, symBinAddr: 0x100004730, symSize: 0x158 }
  - { offsetInCU: 0x240AE, offset: 0x15614C, size: 0x8, addend: 0x0, symName: __ZN4sdsl14memory_monitorD2Ev, symObjAddr: 0x1014, symBinAddr: 0x100004888, symSize: 0xE8 }
  - { offsetInCU: 0x24A6A, offset: 0x156B08, size: 0x8, addend: 0x0, symName: __ZNSt3__15dequeIN4sdsl14memory_monitor8mm_eventENS_9allocatorIS3_EEE5clearEv, symObjAddr: 0xEBC, symBinAddr: 0x100004730, symSize: 0x158 }
  - { offsetInCU: 0x2517F, offset: 0x15721D, size: 0x8, addend: 0x0, symName: __ZN4sdsl14memory_monitor4stopEv, symObjAddr: 0x10FC, symBinAddr: 0x100004970, symSize: 0x160 }
  - { offsetInCU: 0x257EA, offset: 0x157888, size: 0x8, addend: 0x0, symName: __ZNSt3__16vectorIN4sdsl14memory_monitor8mm_eventENS_9allocatorIS3_EEE24__emplace_back_slow_pathIJS3_EEEvDpOT_, symObjAddr: 0x125C, symBinAddr: 0x100004AD0, symSize: 0x1B4 }
  - { offsetInCU: 0x2606E, offset: 0x15810C, size: 0x8, addend: 0x0, symName: __ZNKSt3__16vectorIN4sdsl14memory_monitor8mm_eventENS_9allocatorIS3_EEE20__throw_length_errorB8ue170006Ev, symObjAddr: 0x1410, symBinAddr: 0x100004C84, symSize: 0x14 }
  - { offsetInCU: 0x26085, offset: 0x158123, size: 0x8, addend: 0x0, symName: __ZNSt3__15dequeIN4sdsl14memory_monitor8mm_eventENS_9allocatorIS3_EEE8pop_backEv, symObjAddr: 0x1424, symBinAddr: 0x100004C98, symSize: 0xC4 }
  - { offsetInCU: 0x267C8, offset: 0x158866, size: 0x8, addend: 0x0, symName: __ZNKSt3__16vectorIN4sdsl14memory_monitor8mm_eventENS_9allocatorIS3_EEE20__throw_length_errorB8ue170006Ev, symObjAddr: 0x1410, symBinAddr: 0x100004C84, symSize: 0x14 }
  - { offsetInCU: 0x267F1, offset: 0x15888F, size: 0x8, addend: 0x0, symName: __ZNSt3__15dequeIN4sdsl14memory_monitor8mm_eventENS_9allocatorIS3_EEE8pop_backEv, symObjAddr: 0x1424, symBinAddr: 0x100004C98, symSize: 0xC4 }
  - { offsetInCU: 0x2694E, offset: 0x1589EC, size: 0x8, addend: 0x0, symName: __ZN4sdsl14memory_manager6resizeINS_10int_vectorILh8EEEEEvRT_NS4_9size_typeE, symObjAddr: 0x135D4, symBinAddr: 0x100004F14, symSize: 0x150 }
  - { offsetInCU: 0x26A87, offset: 0x158B25, size: 0x8, addend: 0x0, symName: __ZN4sdsl10int_vectorILh8EED1Ev, symObjAddr: 0x11908, symBinAddr: 0x100004ECC, symSize: 0x48 }
  - { offsetInCU: 0x37, offset: 0x158C79, size: 0x8, addend: 0x0, symName: __ZL11init_ram_fs, symObjAddr: 0x55EA41, symBinAddr: 0x100044FD8, symSize: 0x0 }
  - { offsetInCU: 0x4F, offset: 0x158C91, size: 0x8, addend: 0x0, symName: __ZN2vg5Paths6is_altE, symObjAddr: 0x55EA48, symBinAddr: 0x100045218, symSize: 0x0 }
  - { offsetInCU: 0x40FC, offset: 0x15CD3E, size: 0x8, addend: 0x0, symName: __ZN2vg11cut_mappingERKNS_9mapping_tEm, symObjAddr: 0x9138, symBinAddr: 0x10000A4B0, symSize: 0xB0 }
  - { offsetInCU: 0x4306, offset: 0x15CF48, size: 0x8, addend: 0x0, symName: __ZN2vg11cut_mappingERKNS_7MappingEm, symObjAddr: 0x16F80, symBinAddr: 0x10000F3C0, symSize: 0x694 }
  - { offsetInCU: 0x71708, offset: 0x1CA34A, size: 0x8, addend: 0x0, symName: __ZNSt3__113__tree_removeB8ue170006IPNS_16__tree_node_baseIPvEEEEvT_S5_, symObjAddr: 0x462C, symBinAddr: 0x1000063D4, symSize: 0x3C4 }
  - { offsetInCU: 0x72E4C, offset: 0x1CBA8E, size: 0x8, addend: 0x0, symName: __ZNSt3__116__rotate_forwardB8ue170006INS_17_ClassicAlgPolicyEPNS_4pairIxNS_3mapIxNS_3setIPN2vg9mapping_tENS_4lessIS7_EENS_9allocatorIS7_EEEENS8_IxEENSA_INS2_IKxSC_EEEEEEEEEET0_SK_SK_SK_, symObjAddr: 0xC1A4, symBinAddr: 0x10000CBD8, symSize: 0x1DC }
  - { offsetInCU: 0x8683F, offset: 0x1DF481, size: 0x8, addend: 0x0, symName: __ZN6google8protobuf8internal4NewTIN2vg4PathEEEPvPNS0_5ArenaE, symObjAddr: 0x3BC4, symBinAddr: 0x100005F38, symSize: 0x64 }
  - { offsetInCU: 0xB332E, offset: 0x20BF70, size: 0x8, addend: 0x0, symName: __ZNSt3__18functionIFbRKNS_12basic_stringIcNS_11char_traitsIcEENS_9allocatorIcEEEEEED1Ev, symObjAddr: 0x0, symBinAddr: 0x1000050C8, symSize: 0x4C }
  - { offsetInCU: 0xB33BE, offset: 0x20C000, size: 0x8, addend: 0x0, symName: '__ZNSt3__110__function6__funcIN2vg5Paths3$_0ENS_9allocatorIS4_EEFbRKNS_12basic_stringIcNS_11char_traitsIcEENS5_IcEEEEEED1Ev', symObjAddr: 0x4C, symBinAddr: 0x100005114, symSize: 0x4 }
  - { offsetInCU: 0xB33EA, offset: 0x20C02C, size: 0x8, addend: 0x0, symName: '__ZNSt3__110__function6__funcIN2vg5Paths3$_0ENS_9allocatorIS4_EEFbRKNS_12basic_stringIcNS_11char_traitsIcEENS5_IcEEEEEED0Ev', symObjAddr: 0x50, symBinAddr: 0x100005118, symSize: 0x4 }
  - { offsetInCU: 0xB34CB, offset: 0x20C10D, size: 0x8, addend: 0x0, symName: '__ZNKSt3__110__function6__funcIN2vg5Paths3$_0ENS_9allocatorIS4_EEFbRKNS_12basic_stringIcNS_11char_traitsIcEENS5_IcEEEEEE7__cloneEv', symObjAddr: 0x54, symBinAddr: 0x10000511C, symSize: 0x24 }
  - { offsetInCU: 0xB3610, offset: 0x20C252, size: 0x8, addend: 0x0, symName: '__ZNKSt3__110__function6__funcIN2vg5Paths3$_0ENS_9allocatorIS4_EEFbRKNS_12basic_stringIcNS_11char_traitsIcEENS5_IcEEEEEE7__cloneEPNS0_6__baseISE_EE', symObjAddr: 0x78, symBinAddr: 0x100005140, symSize: 0x10 }
  - { offsetInCU: 0xB3646, offset: 0x20C288, size: 0x8, addend: 0x0, symName: '__ZNKSt3__110__function6__funcIN2vg5Paths3$_0ENS_9allocatorIS4_EEFbRKNS_12basic_stringIcNS_11char_traitsIcEENS5_IcEEEEEE7__cloneEPNS0_6__baseISE_EE', symObjAddr: 0x78, symBinAddr: 0x100005140, symSize: 0x10 }
  - { offsetInCU: 0xB3662, offset: 0x20C2A4, size: 0x8, addend: 0x0, symName: '__ZNKSt3__110__function6__funcIN2vg5Paths3$_0ENS_9allocatorIS4_EEFbRKNS_12basic_stringIcNS_11char_traitsIcEENS5_IcEEEEEE7__cloneEPNS0_6__baseISE_EE', symObjAddr: 0x78, symBinAddr: 0x100005140, symSize: 0x10 }
  - { offsetInCU: 0xB367E, offset: 0x20C2C0, size: 0x8, addend: 0x0, symName: '__ZNSt3__110__function6__funcIN2vg5Paths3$_0ENS_9allocatorIS4_EEFbRKNS_12basic_stringIcNS_11char_traitsIcEENS5_IcEEEEEE7destroyEv', symObjAddr: 0x88, symBinAddr: 0x100005150, symSize: 0x4 }
  - { offsetInCU: 0xB36D1, offset: 0x20C313, size: 0x8, addend: 0x0, symName: '__ZNSt3__110__function6__funcIN2vg5Paths3$_0ENS_9allocatorIS4_EEFbRKNS_12basic_stringIcNS_11char_traitsIcEENS5_IcEEEEEE18destroy_deallocateEv', symObjAddr: 0x8C, symBinAddr: 0x100005154, symSize: 0x4 }
  - { offsetInCU: 0xB3706, offset: 0x20C348, size: 0x8, addend: 0x0, symName: '__ZNSt3__110__function6__funcIN2vg5Paths3$_0ENS_9allocatorIS4_EEFbRKNS_12basic_stringIcNS_11char_traitsIcEENS5_IcEEEEEE18destroy_deallocateEv', symObjAddr: 0x8C, symBinAddr: 0x100005154, symSize: 0x4 }
  - { offsetInCU: 0xB3728, offset: 0x20C36A, size: 0x8, addend: 0x0, symName: '__ZNSt3__110__function6__funcIN2vg5Paths3$_0ENS_9allocatorIS4_EEFbRKNS_12basic_stringIcNS_11char_traitsIcEENS5_IcEEEEEE18destroy_deallocateEv', symObjAddr: 0x8C, symBinAddr: 0x100005154, symSize: 0x4 }
  - { offsetInCU: 0xB3753, offset: 0x20C395, size: 0x8, addend: 0x0, symName: '__ZNSt3__110__function6__funcIN2vg5Paths3$_0ENS_9allocatorIS4_EEFbRKNS_12basic_stringIcNS_11char_traitsIcEENS5_IcEEEEEE18destroy_deallocateEv', symObjAddr: 0x8C, symBinAddr: 0x100005154, symSize: 0x4 }
  - { offsetInCU: 0xB3779, offset: 0x20C3BB, size: 0x8, addend: 0x0, symName: '__ZNSt3__110__function6__funcIN2vg5Paths3$_0ENS_9allocatorIS4_EEFbRKNS_12basic_stringIcNS_11char_traitsIcEENS5_IcEEEEEE18destroy_deallocateEv', symObjAddr: 0x8C, symBinAddr: 0x100005154, symSize: 0x4 }
  - { offsetInCU: 0xB3A65, offset: 0x20C6A7, size: 0x8, addend: 0x0, symName: '__ZNSt3__110__function6__funcIN2vg5Paths3$_0ENS_9allocatorIS4_EEFbRKNS_12basic_stringIcNS_11char_traitsIcEENS5_IcEEEEEEclESD_', symObjAddr: 0x90, symBinAddr: 0x100005158, symSize: 0x114 }
  - { offsetInCU: 0xB3EE6, offset: 0x20CB28, size: 0x8, addend: 0x0, symName: '__ZNKSt3__110__function6__funcIN2vg5Paths3$_0ENS_9allocatorIS4_EEFbRKNS_12basic_stringIcNS_11char_traitsIcEENS5_IcEEEEEE6targetERKSt9type_info', symObjAddr: 0x1A4, symBinAddr: 0x10000526C, symSize: 0x60 }
  - { offsetInCU: 0xB3F6C, offset: 0x20CBAE, size: 0x8, addend: 0x0, symName: '__ZNKSt3__110__function6__funcIN2vg5Paths3$_0ENS_9allocatorIS4_EEFbRKNS_12basic_stringIcNS_11char_traitsIcEENS5_IcEEEEEE11target_typeEv', symObjAddr: 0x204, symBinAddr: 0x1000052CC, symSize: 0xC }
  - { offsetInCU: 0xB4162, offset: 0x20CDA4, size: 0x8, addend: 0x0, symName: __ZN2vg9mapping_tC1Ev, symObjAddr: 0x42C, symBinAddr: 0x1000052D8, symSize: 0x14 }
  - { offsetInCU: 0xB4184, offset: 0x20CDC6, size: 0x8, addend: 0x0, symName: __ZN2vg9mapping_tC1Ev, symObjAddr: 0x42C, symBinAddr: 0x1000052D8, symSize: 0x14 }
  - { offsetInCU: 0xB43BC, offset: 0x20CFFE, size: 0x8, addend: 0x0, symName: __ZN2vg9mapping_tC2ERKNS_7MappingE, symObjAddr: 0x440, symBinAddr: 0x1000052EC, symSize: 0x114 }
  - { offsetInCU: 0xB480E, offset: 0x20D450, size: 0x8, addend: 0x0, symName: __ZN2vg9mapping_t14set_is_reverseEb, symObjAddr: 0x554, symBinAddr: 0x100005400, symSize: 0x1C }
  - { offsetInCU: 0xB4916, offset: 0x20D558, size: 0x8, addend: 0x0, symName: __ZN2vg9mapping_tC2ERKNS_7MappingE.cold.1, symObjAddr: 0x1F2F8, symBinAddr: 0x10002971C, symSize: 0x28 }
  - { offsetInCU: 0xB492E, offset: 0x20D570, size: 0x8, addend: 0x0, symName: __ZN2vg9mapping_t14set_is_reverseEb, symObjAddr: 0x554, symBinAddr: 0x100005400, symSize: 0x1C }
  - { offsetInCU: 0xB4D56, offset: 0x20D998, size: 0x8, addend: 0x0, symName: __ZNK2vg9mapping_t10to_mappingEv, symObjAddr: 0x66C, symBinAddr: 0x10000541C, symSize: 0x100 }
  - { offsetInCU: 0xB5179, offset: 0x20DDBB, size: 0x8, addend: 0x0, symName: __ZNK2vg9mapping_t7node_idEv, symObjAddr: 0x76C, symBinAddr: 0x10000551C, symSize: 0x10 }
  - { offsetInCU: 0xB51B7, offset: 0x20DDF9, size: 0x8, addend: 0x0, symName: __ZNK2vg9mapping_t10is_reverseEv, symObjAddr: 0x77C, symBinAddr: 0x10000552C, symSize: 0xC }
  - { offsetInCU: 0xB527D, offset: 0x20DEBF, size: 0x8, addend: 0x0, symName: __ZN2vg9mapping_t11set_node_idEx, symObjAddr: 0x810, symBinAddr: 0x100005538, symSize: 0x14 }
  - { offsetInCU: 0xB52AC, offset: 0x20DEEE, size: 0x8, addend: 0x0, symName: __ZN2vg9mapping_t11set_node_idEx, symObjAddr: 0x810, symBinAddr: 0x100005538, symSize: 0x14 }
  - { offsetInCU: 0xB665B, offset: 0x20F29D, size: 0x8, addend: 0x0, symName: __ZNSt3__16__treeINS_12__value_typeIxNS_3setIPN2vg9mapping_tENS_4lessIS5_EENS_9allocatorIS5_EEEEEENS_19__map_value_compareIxSB_NS6_IxEELb1EEENS8_ISB_EEE7destroyEPNS_11__tree_nodeISB_PvEE, symObjAddr: 0xCB8, symBinAddr: 0x10000554C, symSize: 0x4C }
  - { offsetInCU: 0xB6891, offset: 0x20F4D3, size: 0x8, addend: 0x0, symName: __ZNSt3__16__treeIPN2vg9mapping_tENS_4lessIS3_EENS_9allocatorIS3_EEE7destroyEPNS_11__tree_nodeIS3_PvEE, symObjAddr: 0xD04, symBinAddr: 0x100005598, symSize: 0x40 }
  - { offsetInCU: 0xB6CEC, offset: 0x20F92E, size: 0x8, addend: 0x0, symName: __ZNSt3__16__treeINS_12__value_typeINS_12basic_stringIcNS_11char_traitsIcEENS_9allocatorIcEEEEN2vg8hash_mapIiPNS8_9mapping_tEEEEENS_19__map_value_compareIS7_SD_NS_4lessIS7_EELb1EEENS5_ISD_EEE7destroyEPNS_11__tree_nodeISD_PvEE, symObjAddr: 0xD44, symBinAddr: 0x1000055D8, symSize: 0xC0 }
  - { offsetInCU: 0xB72EC, offset: 0x20FF2E, size: 0x8, addend: 0x0, symName: __ZNSt3__16__treeINS_12__value_typeINS_12basic_stringIcNS_11char_traitsIcEENS_9allocatorIcEEEENS_4listIN2vg9mapping_tENS5_ISA_EEEEEENS_19__map_value_compareIS7_SD_NS_4lessIS7_EELb1EEENS5_ISD_EEE7destroyEPNS_11__tree_nodeISD_PvEE, symObjAddr: 0xE04, symBinAddr: 0x100005698, symSize: 0xB0 }
  - { offsetInCU: 0xB771E, offset: 0x210360, size: 0x8, addend: 0x0, symName: __ZN2vg5PathsC1Ev, symObjAddr: 0xEB4, symBinAddr: 0x100005748, symSize: 0x118 }
  - { offsetInCU: 0xB8867, offset: 0x2114A9, size: 0x8, addend: 0x0, symName: __ZN2vg5Paths6extendERKNS_4PathEbb, symObjAddr: 0x11F0, symBinAddr: 0x100005860, symSize: 0x144 }
  - { offsetInCU: 0xB8FD1, offset: 0x211C13, size: 0x8, addend: 0x0, symName: __ZN2vg5Paths20sort_by_mapping_rankEv, symObjAddr: 0x4E1C, symBinAddr: 0x100006B74, symSize: 0x70 }
  - { offsetInCU: 0xB91AE, offset: 0x211DF0, size: 0x8, addend: 0x0, symName: __ZNK2vg5Paths8has_pathERKNSt3__112basic_stringIcNS1_11char_traitsIcEENS1_9allocatorIcEEEE, symObjAddr: 0x9B68, symBinAddr: 0x10000AEE0, symSize: 0x10C }
  - { offsetInCU: 0xB952A, offset: 0x21216C, size: 0x8, addend: 0x0, symName: __ZNSt3__16__treeINS_12__value_typeINS_12basic_stringIcNS_11char_traitsIcEENS_9allocatorIcEEEENS_4listIN2vg9mapping_tENS5_ISA_EEEEEENS_19__map_value_compareIS7_SD_NS_4lessIS7_EELb1EEENS5_ISD_EEE25__emplace_unique_key_argsIS7_JRKNS_21piecewise_construct_tENS_5tupleIJRKS7_EEENSO_IJEEEEEENS_4pairINS_15__tree_iteratorISD_PNS_11__tree_nodeISD_PvEElEEbEERKT_DpOT0_, symObjAddr: 0x2E94, symBinAddr: 0x1000059A4, symSize: 0x1EC }
  - { offsetInCU: 0xBA093, offset: 0x212CD5, size: 0x8, addend: 0x0, symName: __ZN2vg5Paths14append_mappingERKNSt3__112basic_stringIcNS1_11char_traitsIcEENS1_9allocatorIcEEEERKNS_9mapping_tEb, symObjAddr: 0x4A40, symBinAddr: 0x100006798, symSize: 0x3DC }
  - { offsetInCU: 0xBADFE, offset: 0x213A40, size: 0x8, addend: 0x0, symName: __ZNSt3__16__treeINS_12basic_stringIcNS_11char_traitsIcEENS_9allocatorIcEEEENS_4lessIS6_EENS4_IS6_EEE25__emplace_unique_key_argsIS6_JRKS6_EEENS_4pairINS_15__tree_iteratorIS6_PNS_11__tree_nodeIS6_PvEElEEbEERKT_DpOT0_, symObjAddr: 0x4298, symBinAddr: 0x100006040, symSize: 0x1F0 }
  - { offsetInCU: 0xBB6A7, offset: 0x2142E9, size: 0x8, addend: 0x0, symName: __ZN2vg5Paths19rebuild_mapping_auxEv, symObjAddr: 0x4E8C, symBinAddr: 0x100006BE4, symSize: 0x538 }
  - { offsetInCU: 0xBC8F5, offset: 0x215537, size: 0x8, addend: 0x0, symName: '__ZNSt3__14listIN2vg9mapping_tENS_9allocatorIS2_EEE6__sortIZNS1_5Paths20sort_by_mapping_rankEvE3$_4EENS_15__list_iteratorIS2_PvEESB_SB_mRT_', symObjAddr: 0xC5FC, symBinAddr: 0x10000D030, symSize: 0x1DC }
  - { offsetInCU: 0xC2161, offset: 0x21ADA3, size: 0x8, addend: 0x0, symName: __ZNSt3__14listINS_8functionIFvxxEEENS_9allocatorIS3_EEED1Ev, symObjAddr: 0x36C8, symBinAddr: 0x100005B90, symSize: 0x9C }
  - { offsetInCU: 0xC27D7, offset: 0x21B419, size: 0x8, addend: 0x0, symName: __ZN2vg5Paths8to_graphERNS_5GraphE, symObjAddr: 0x38B8, symBinAddr: 0x100005C2C, symSize: 0x300 }
  - { offsetInCU: 0xC3191, offset: 0x21BDD3, size: 0x8, addend: 0x0, symName: __ZN6google8protobuf16RepeatedPtrFieldIN2vg4PathEE3AddEv, symObjAddr: 0x3BB8, symBinAddr: 0x100005F2C, symSize: 0xC }
  - { offsetInCU: 0xC31BA, offset: 0x21BDFC, size: 0x8, addend: 0x0, symName: __ZN6google8protobuf16RepeatedPtrFieldIN2vg4PathEE3AddEv, symObjAddr: 0x3BB8, symBinAddr: 0x100005F2C, symSize: 0xC }
  - { offsetInCU: 0xC395F, offset: 0x21C5A1, size: 0x8, addend: 0x0, symName: __ZNK2vg5Paths23for_each_name_stoppableERKNSt3__18functionIFbRKNS1_12basic_stringIcNS1_11char_traitsIcEENS1_9allocatorIcEEEEEEE, symObjAddr: 0x4058, symBinAddr: 0x100005F9C, symSize: 0x98 }
  - { offsetInCU: 0xC3B3A, offset: 0x21C77C, size: 0x8, addend: 0x0, symName: __ZN2vg5Paths13make_circularERKNSt3__112basic_stringIcNS1_11char_traitsIcEENS1_9allocatorIcEEEE, symObjAddr: 0x428C, symBinAddr: 0x100006034, symSize: 0xC }
  - { offsetInCU: 0xC3BAC, offset: 0x21C7EE, size: 0x8, addend: 0x0, symName: __ZNSt3__16__treeINS_12basic_stringIcNS_11char_traitsIcEENS_9allocatorIcEEEENS_4lessIS6_EENS4_IS6_EEE25__emplace_unique_key_argsIS6_JRKS6_EEENS_4pairINS_15__tree_iteratorIS6_PNS_11__tree_nodeIS6_PvEElEEbEERKT_DpOT0_, symObjAddr: 0x4298, symBinAddr: 0x100006040, symSize: 0x1F0 }
  - { offsetInCU: 0xC3E86, offset: 0x21CAC8, size: 0x8, addend: 0x0, symName: __ZN2vg5Paths11make_linearERKNSt3__112basic_stringIcNS1_11char_traitsIcEENS1_9allocatorIcEEEE, symObjAddr: 0x4488, symBinAddr: 0x100006230, symSize: 0x8 }
  - { offsetInCU: 0xC3EE2, offset: 0x21CB24, size: 0x8, addend: 0x0, symName: __ZNSt3__16__treeINS_12basic_stringIcNS_11char_traitsIcEENS_9allocatorIcEEEENS_4lessIS6_EENS4_IS6_EEE14__erase_uniqueIS6_EEmRKT_, symObjAddr: 0x4490, symBinAddr: 0x100006238, symSize: 0x19C }
  - { offsetInCU: 0xC3EF6, offset: 0x21CB38, size: 0x8, addend: 0x0, symName: __ZNSt3__16__treeINS_12basic_stringIcNS_11char_traitsIcEENS_9allocatorIcEEEENS_4lessIS6_EENS4_IS6_EEE14__erase_uniqueIS6_EEmRKT_, symObjAddr: 0x4490, symBinAddr: 0x100006238, symSize: 0x19C }
  - { offsetInCU: 0xC5120, offset: 0x21DD62, size: 0x8, addend: 0x0, symName: __ZN2vg5Paths11has_mappingERKNSt3__112basic_stringIcNS1_11char_traitsIcEENS1_9allocatorIcEEEEi, symObjAddr: 0x5B40, symBinAddr: 0x10000727C, symSize: 0x13C }
  - { offsetInCU: 0xC54B8, offset: 0x21E0FA, size: 0x8, addend: 0x0, symName: __ZN3spp16sparse_hashtableINSt3__14pairIKxNS1_3mapIxNS1_3setIPN2vg9mapping_tENS1_4lessIS8_EENS1_9allocatorIS8_EEEENS9_IxEENSB_INS2_IS3_SD_EEEEEEEExNS6_9wang_hashIxvEENS_15sparse_hash_mapIxSH_SK_NS1_8equal_toIxEENS_14libc_allocatorISI_EEE9SelectKeyENSQ_6SetKeyESN_SP_E14find_or_insertINSQ_12DefaultValueEEERSI_RS3_, symObjAddr: 0xAEAC, symBinAddr: 0x10000B8E0, symSize: 0x2D0 }
  - { offsetInCU: 0xC6123, offset: 0x21ED65, size: 0x8, addend: 0x0, symName: __ZNK2vg5Paths11get_path_idERKNSt3__112basic_stringIcNS1_11char_traitsIcEENS1_9allocatorIcEEEE, symObjAddr: 0x5DEC, symBinAddr: 0x1000074FC, symSize: 0x240 }
  - { offsetInCU: 0xC6797, offset: 0x21F3D9, size: 0x8, addend: 0x0, symName: __ZNSt3__16__treeINS_12__value_typeINS_12basic_stringIcNS_11char_traitsIcEENS_9allocatorIcEEEEN2vg8hash_mapIiPNS8_9mapping_tEEEEENS_19__map_value_compareIS7_SD_NS_4lessIS7_EELb1EEENS5_ISD_EEE25__emplace_unique_key_argsIS7_JRKNS_21piecewise_construct_tENS_5tupleIJRKS7_EEENSO_IJEEEEEENS_4pairINS_15__tree_iteratorISD_PNS_11__tree_nodeISD_PvEElEEbEERKT_DpOT0_, symObjAddr: 0x60BC, symBinAddr: 0x10000773C, symSize: 0x17C }
  - { offsetInCU: 0xC6B1D, offset: 0x21F75F, size: 0x8, addend: 0x0, symName: __ZNK3spp16sparse_hashtableINSt3__14pairIKiPN2vg9mapping_tEEEiNS4_9wang_hashIivEENS_15sparse_hash_mapIiS6_S9_NS1_8equal_toIiEENS_14libc_allocatorIS7_EEE9SelectKeyENSF_6SetKeyESC_SE_E14_find_positionERS3_, symObjAddr: 0x5C7C, symBinAddr: 0x1000073B8, symSize: 0x144 }
  - { offsetInCU: 0xC6EC0, offset: 0x21FB02, size: 0x8, addend: 0x0, symName: __ZN3spp16sparse_hashtableINSt3__14pairIKPKN2vg9mapping_tENS2_INS1_15__list_iteratorIS4_PvEExEEEES6_NS3_9wang_hashIS6_vEENS_15sparse_hash_mapIS6_SB_SE_NS1_8equal_toIS6_EENS_14libc_allocatorISC_EEE9SelectKeyENSK_6SetKeyESH_SJ_E14find_or_insertINSK_12DefaultValueEEERSC_RS7_, symObjAddr: 0x6408, symBinAddr: 0x100007A88, symSize: 0x208 }
  - { offsetInCU: 0xC763D, offset: 0x22027F, size: 0x8, addend: 0x0, symName: __ZN3spp16sparse_hashtableINSt3__14pairIKPKN2vg9mapping_tENS2_INS1_15__list_iteratorIS4_PvEExEEEES6_NS3_9wang_hashIS6_vEENS_15sparse_hash_mapIS6_SB_SE_NS1_8equal_toIS6_EENS_14libc_allocatorISC_EEE9SelectKeyENSK_6SetKeyESH_SJ_E13_resize_deltaEm, symObjAddr: 0x6610, symBinAddr: 0x100007C90, symSize: 0x2EC }
  - { offsetInCU: 0xC7662, offset: 0x2202A4, size: 0x8, addend: 0x0, symName: __ZN3spp16sparse_hashtableINSt3__14pairIKiPN2vg9mapping_tEEEiNS4_9wang_hashIivEENS_15sparse_hash_mapIiS6_S9_NS1_8equal_toIiEENS_14libc_allocatorIS7_EEE9SelectKeyENSF_6SetKeyESC_SE_E14find_or_insertINSF_12DefaultValueEEERS7_RS3_, symObjAddr: 0x76B0, symBinAddr: 0x100008D30, symSize: 0x224 }
  - { offsetInCU: 0xC7CDA, offset: 0x22091C, size: 0x8, addend: 0x0, symName: __ZN3spp16sparse_hashtableINSt3__14pairIKiPN2vg9mapping_tEEEiNS4_9wang_hashIivEENS_15sparse_hash_mapIiS6_S9_NS1_8equal_toIiEENS_14libc_allocatorIS7_EEE9SelectKeyENSF_6SetKeyESC_SE_E13_resize_deltaEm, symObjAddr: 0x78D4, symBinAddr: 0x100008F54, symSize: 0x2EC }
  - { offsetInCU: 0xC8607, offset: 0x221249, size: 0x8, addend: 0x0, symName: __ZN3spp16sparse_hashtableINSt3__14pairIKPKN2vg9mapping_tENS2_INS1_15__list_iteratorIS4_PvEExEEEES6_NS3_9wang_hashIS6_vEENS_15sparse_hash_mapIS6_SB_SE_NS1_8equal_toIS6_EENS_14libc_allocatorISC_EEE9SelectKeyENSK_6SetKeyESH_SJ_E5clearEv, symObjAddr: 0x6F68, symBinAddr: 0x1000085E8, symSize: 0xD0 }
  - { offsetInCU: 0xC8B95, offset: 0x2217D7, size: 0x8, addend: 0x0, symName: __ZN2vg5Paths6appendERKNS_5GraphEbb, symObjAddr: 0x5928, symBinAddr: 0x10000711C, symSize: 0xF0 }
  - { offsetInCU: 0xC8E6F, offset: 0x221AB1, size: 0x8, addend: 0x0, symName: __ZNK6google8protobuf8internal20RepeatedPtrFieldBase3GetINS0_16RepeatedPtrFieldIN2vg4PathEE11TypeHandlerEEERKNT_4TypeEi, symObjAddr: 0x5A18, symBinAddr: 0x10000720C, symSize: 0x70 }
  - { offsetInCU: 0xC9003, offset: 0x221C45, size: 0x8, addend: 0x0, symName: __ZNK6google8protobuf8internal20RepeatedPtrFieldBase3GetINS0_16RepeatedPtrFieldIN2vg4PathEE11TypeHandlerEEERKNT_4TypeEi.cold.1, symObjAddr: 0x1F480, symBinAddr: 0x100029744, symSize: 0x3C }
  - { offsetInCU: 0xC905A, offset: 0x221C9C, size: 0x8, addend: 0x0, symName: __ZNK6google8protobuf8internal20RepeatedPtrFieldBase3GetINS0_16RepeatedPtrFieldIN2vg4PathEE11TypeHandlerEEERKNT_4TypeEi.cold.3, symObjAddr: 0x1F4F8, symBinAddr: 0x1000297BC, symSize: 0x40 }
  - { offsetInCU: 0xC90B1, offset: 0x221CF3, size: 0x8, addend: 0x0, symName: __ZNK6google8protobuf8internal20RepeatedPtrFieldBase3GetINS0_16RepeatedPtrFieldIN2vg4PathEE11TypeHandlerEEERKNT_4TypeEi.cold.2, symObjAddr: 0x1F4BC, symBinAddr: 0x100029780, symSize: 0x3C }
  - { offsetInCU: 0xC9545, offset: 0x222187, size: 0x8, addend: 0x0, symName: __ZNK3spp16sparse_hashtableINSt3__14pairIKiPN2vg9mapping_tEEEiNS4_9wang_hashIivEENS_15sparse_hash_mapIiS6_S9_NS1_8equal_toIiEENS_14libc_allocatorIS7_EEE9SelectKeyENSF_6SetKeyESC_SE_E14_find_positionERS3_.cold.1, symObjAddr: 0x1F538, symBinAddr: 0x1000297FC, symSize: 0x24 }
  - { offsetInCU: 0xC9A97, offset: 0x2226D9, size: 0x8, addend: 0x0, symName: __ZNSt3__16__treeINS_12__value_typeINS_12basic_stringIcNS_11char_traitsIcEENS_9allocatorIcEEEExEENS_19__map_value_compareIS7_S8_NS_4lessIS7_EELb1EEENS5_IS8_EEE25__emplace_unique_key_argsIS7_JRKNS_21piecewise_construct_tENS_5tupleIJRKS7_EEENSJ_IJEEEEEENS_4pairINS_15__tree_iteratorIS8_PNS_11__tree_nodeIS8_PvEElEEbEERKT_DpOT0_, symObjAddr: 0x86E0, symBinAddr: 0x100009D60, symSize: 0x1E4 }
  - { offsetInCU: 0xCA450, offset: 0x223092, size: 0x8, addend: 0x0, symName: __ZNSt3__16__treeINS_12__value_typeINS_12basic_stringIcNS_11char_traitsIcEENS_9allocatorIcEEEEN2vg8hash_mapIiPNS8_9mapping_tEEEEENS_19__map_value_compareIS7_SD_NS_4lessIS7_EELb1EEENS5_ISD_EEE16__construct_nodeIJRKNS_21piecewise_construct_tENS_5tupleIJRKS7_EEENSO_IJEEEEEENS_10unique_ptrINS_11__tree_nodeISD_PvEENS_22__tree_node_destructorINS5_ISW_EEEEEEDpOT_, symObjAddr: 0x6238, symBinAddr: 0x1000078B8, symSize: 0x128 }
  - { offsetInCU: 0xCAEB9, offset: 0x223AFB, size: 0x8, addend: 0x0, symName: __ZNSt3__110unique_ptrINS_11__tree_nodeINS_12__value_typeINS_12basic_stringIcNS_11char_traitsIcEENS_9allocatorIcEEEEN2vg8hash_mapIiPNS9_9mapping_tEEEEEPvEENS_22__tree_node_destructorINS6_ISG_EEEEED1B8ue170006Ev, symObjAddr: 0x6360, symBinAddr: 0x1000079E0, symSize: 0xA8 }
  - { offsetInCU: 0xCB958, offset: 0x22459A, size: 0x8, addend: 0x0, symName: __ZN3spp16sparse_hashtableINSt3__14pairIKPKN2vg9mapping_tENS2_INS1_15__list_iteratorIS4_PvEExEEEES6_NS3_9wang_hashIS6_vEENS_15sparse_hash_mapIS6_SB_SE_NS1_8equal_toIS6_EENS_14libc_allocatorISC_EEE9SelectKeyENSK_6SetKeyESH_SJ_E13_resize_deltaEm, symObjAddr: 0x6610, symBinAddr: 0x100007C90, symSize: 0x2EC }
  - { offsetInCU: 0xCC074, offset: 0x224CB6, size: 0x8, addend: 0x0, symName: __ZNK3spp16sparse_hashtableINSt3__14pairIKPKN2vg9mapping_tENS2_INS1_15__list_iteratorIS4_PvEExEEEES6_NS3_9wang_hashIS6_vEENS_15sparse_hash_mapIS6_SB_SE_NS1_8equal_toIS6_EENS_14libc_allocatorISC_EEE9SelectKeyENSK_6SetKeyESH_SJ_E14_find_positionERS7_, symObjAddr: 0x747C, symBinAddr: 0x100008AFC, symSize: 0x140 }
  - { offsetInCU: 0xCC3FB, offset: 0x22503D, size: 0x8, addend: 0x0, symName: __ZN3spp11sparsetableINSt3__14pairIKPKN2vg9mapping_tENS2_INS1_15__list_iteratorIS4_PvEExEEEENS_14libc_allocatorISC_EEE3setISC_EERSC_mRT_, symObjAddr: 0x75BC, symBinAddr: 0x100008C3C, symSize: 0xF4 }
  - { offsetInCU: 0xCC407, offset: 0x225049, size: 0x8, addend: 0x0, symName: __ZN3spp16sparse_hashtableINSt3__14pairIKPKN2vg9mapping_tENS2_INS1_15__list_iteratorIS4_PvEExEEEES6_NS3_9wang_hashIS6_vEENS_15sparse_hash_mapIS6_SB_SE_NS1_8equal_toIS6_EENS_14libc_allocatorISC_EEE9SelectKeyENSK_6SetKeyESH_SJ_E10_insert_atISC_EERSC_RT_mb, symObjAddr: 0x68FC, symBinAddr: 0x100007F7C, symSize: 0xBC }
  - { offsetInCU: 0xCC56D, offset: 0x2251AF, size: 0x8, addend: 0x0, symName: __ZN3spp16sparse_hashtableINSt3__14pairIKPKN2vg9mapping_tENS2_INS1_15__list_iteratorIS4_PvEExEEEES6_NS3_9wang_hashIS6_vEENS_15sparse_hash_mapIS6_SB_SE_NS1_8equal_toIS6_EENS_14libc_allocatorISC_EEE9SelectKeyENSK_6SetKeyESH_SJ_E14find_or_insertINSK_12DefaultValueEEERSC_RS7_.cold.2, symObjAddr: 0x1F584, symBinAddr: 0x100029848, symSize: 0x24 }
  - { offsetInCU: 0xCC585, offset: 0x2251C7, size: 0x8, addend: 0x0, symName: __ZN3spp16sparse_hashtableINSt3__14pairIKPKN2vg9mapping_tENS2_INS1_15__list_iteratorIS4_PvEExEEEES6_NS3_9wang_hashIS6_vEENS_15sparse_hash_mapIS6_SB_SE_NS1_8equal_toIS6_EENS_14libc_allocatorISC_EEE9SelectKeyENSK_6SetKeyESH_SJ_E14find_or_insertINSK_12DefaultValueEEERSC_RS7_.cold.1, symObjAddr: 0x1F55C, symBinAddr: 0x100029820, symSize: 0x28 }
  - { offsetInCU: 0xCC927, offset: 0x225569, size: 0x8, addend: 0x0, symName: __ZN3spp16sparse_hashtableINSt3__14pairIKPKN2vg9mapping_tENS2_INS1_15__list_iteratorIS4_PvEExEEEES6_NS3_9wang_hashIS6_vEENS_15sparse_hash_mapIS6_SB_SE_NS1_8equal_toIS6_EENS_14libc_allocatorISC_EEE9SelectKeyENSK_6SetKeyESH_SJ_E13_maybe_shrinkEv, symObjAddr: 0x69B8, symBinAddr: 0x100008038, symSize: 0x174 }
  - { offsetInCU: 0xCCDF2, offset: 0x225A34, size: 0x8, addend: 0x0, symName: __ZN3spp16sparse_hashtableINSt3__14pairIKPKN2vg9mapping_tENS2_INS1_15__list_iteratorIS4_PvEExEEEES6_NS3_9wang_hashIS6_vEENS_15sparse_hash_mapIS6_SB_SE_NS1_8equal_toIS6_EENS_14libc_allocatorISC_EEE9SelectKeyENSK_6SetKeyESH_SJ_EC1ENSN_13MoveDontCopyTERSN_m, symObjAddr: 0x6B2C, symBinAddr: 0x1000081AC, symSize: 0xEC }
  - { offsetInCU: 0xCCDFE, offset: 0x225A40, size: 0x8, addend: 0x0, symName: __ZN3spp16sparse_hashtableINSt3__14pairIKPKN2vg9mapping_tENS2_INS1_15__list_iteratorIS4_PvEExEEEES6_NS3_9wang_hashIS6_vEENS_15sparse_hash_mapIS6_SB_SE_NS1_8equal_toIS6_EENS_14libc_allocatorISC_EEE9SelectKeyENSK_6SetKeyESH_SJ_EC1ENSN_13MoveDontCopyTERSN_m, symObjAddr: 0x6B2C, symBinAddr: 0x1000081AC, symSize: 0xEC }
  - { offsetInCU: 0xCD10A, offset: 0x225D4C, size: 0x8, addend: 0x0, symName: __ZN3spp11sparsetableINSt3__14pairIKPKN2vg9mapping_tENS2_INS1_15__list_iteratorIS4_PvEExEEEENS_14libc_allocatorISC_EEE3setISC_EERSC_mRT_, symObjAddr: 0x75BC, symBinAddr: 0x100008C3C, symSize: 0xF4 }
  - { offsetInCU: 0xCD3C4, offset: 0x226006, size: 0x8, addend: 0x0, symName: __ZN3spp16sparse_hashtableINSt3__14pairIKiPN2vg9mapping_tEEEiNS4_9wang_hashIivEENS_15sparse_hash_mapIiS6_S9_NS1_8equal_toIiEENS_14libc_allocatorIS7_EEE9SelectKeyENSF_6SetKeyESC_SE_E14find_or_insertINSF_12DefaultValueEEERS7_RS3_, symObjAddr: 0x76B0, symBinAddr: 0x100008D30, symSize: 0x224 }
  - { offsetInCU: 0xCD3D9, offset: 0x22601B, size: 0x8, addend: 0x0, symName: __ZN3spp16sparse_hashtableINSt3__14pairIKPKN2vg9mapping_tENS2_INS1_15__list_iteratorIS4_PvEExEEEES6_NS3_9wang_hashIS6_vEENS_15sparse_hash_mapIS6_SB_SE_NS1_8equal_toIS6_EENS_14libc_allocatorISC_EEE9SelectKeyENSK_6SetKeyESH_SJ_E10_insert_atISC_EERSC_RT_mb.cold.1, symObjAddr: 0x1F5A8, symBinAddr: 0x10002986C, symSize: 0x24 }
  - { offsetInCU: 0xCD41D, offset: 0x22605F, size: 0x8, addend: 0x0, symName: __ZN3spp16sparse_hashtableINSt3__14pairIKPKN2vg9mapping_tENS2_INS1_15__list_iteratorIS4_PvEExEEEES6_NS3_9wang_hashIS6_vEENS_15sparse_hash_mapIS6_SB_SE_NS1_8equal_toIS6_EENS_14libc_allocatorISC_EEE9SelectKeyENSK_6SetKeyESH_SJ_E13_maybe_shrinkEv.cold.2, symObjAddr: 0x1F5F0, symBinAddr: 0x1000298B4, symSize: 0x24 }
  - { offsetInCU: 0xCD435, offset: 0x226077, size: 0x8, addend: 0x0, symName: __ZN3spp16sparse_hashtableINSt3__14pairIKPKN2vg9mapping_tENS2_INS1_15__list_iteratorIS4_PvEExEEEES6_NS3_9wang_hashIS6_vEENS_15sparse_hash_mapIS6_SB_SE_NS1_8equal_toIS6_EENS_14libc_allocatorISC_EEE9SelectKeyENSK_6SetKeyESH_SJ_E13_maybe_shrinkEv.cold.1, symObjAddr: 0x1F5CC, symBinAddr: 0x100029890, symSize: 0x24 }
  - { offsetInCU: 0xCD49F, offset: 0x2260E1, size: 0x8, addend: 0x0, symName: __ZN3spp16sparse_hashtableINSt3__14pairIKPKN2vg9mapping_tENS2_INS1_15__list_iteratorIS4_PvEExEEEES6_NS3_9wang_hashIS6_vEENS_15sparse_hash_mapIS6_SB_SE_NS1_8equal_toIS6_EENS_14libc_allocatorISC_EEE9SelectKeyENSK_6SetKeyESH_SJ_E10_move_fromENSN_13MoveDontCopyTERSN_m, symObjAddr: 0x6C18, symBinAddr: 0x100008298, symSize: 0x350 }
  - { offsetInCU: 0xCDD7B, offset: 0x2269BD, size: 0x8, addend: 0x0, symName: __ZN3spp16sparse_hashtableINSt3__14pairIKPKN2vg9mapping_tENS2_INS1_15__list_iteratorIS4_PvEExEEEES6_NS3_9wang_hashIS6_vEENS_15sparse_hash_mapIS6_SB_SE_NS1_8equal_toIS6_EENS_14libc_allocatorISC_EEE9SelectKeyENSK_6SetKeyESH_SJ_EC1ENSN_13MoveDontCopyTERSN_m.cold.1, symObjAddr: 0x1F614, symBinAddr: 0x1000298D8, symSize: 0x54 }
  - { offsetInCU: 0xCE072, offset: 0x226CB4, size: 0x8, addend: 0x0, symName: __ZN3spp11sparsetableINSt3__14pairIKPKN2vg9mapping_tENS2_INS1_15__list_iteratorIS4_PvEExEEEENS_14libc_allocatorISC_EEE6resizeEm, symObjAddr: 0x7038, symBinAddr: 0x1000086B8, symSize: 0x128 }
  - { offsetInCU: 0xCE301, offset: 0x226F43, size: 0x8, addend: 0x0, symName: __ZN3spp11sparsetableINSt3__14pairIKPKN2vg9mapping_tENS2_INS1_15__list_iteratorIS4_PvEExEEEENS_14libc_allocatorISC_EEE4moveEmRSC_, symObjAddr: 0x7160, symBinAddr: 0x1000087E0, symSize: 0xD0 }
  - { offsetInCU: 0xCE548, offset: 0x22718A, size: 0x8, addend: 0x0, symName: __ZN3spp11sparsegroupINSt3__14pairIKPKN2vg9mapping_tENS2_INS1_15__list_iteratorIS4_PvEExEEEENS_14libc_allocatorISC_EEE8_set_auxISC_EEvRSE_hRT_NS_17integral_constantIbLb0EEE, symObjAddr: 0x7230, symBinAddr: 0x1000088B0, symSize: 0x24C }
  - { offsetInCU: 0xCE554, offset: 0x227196, size: 0x8, addend: 0x0, symName: __ZN3spp16sparse_hashtableINSt3__14pairIKPKN2vg9mapping_tENS2_INS1_15__list_iteratorIS4_PvEExEEEES6_NS3_9wang_hashIS6_vEENS_15sparse_hash_mapIS6_SB_SE_NS1_8equal_toIS6_EENS_14libc_allocatorISC_EEE9SelectKeyENSK_6SetKeyESH_SJ_E10_move_fromENSN_13MoveDontCopyTERSN_m.cold.1, symObjAddr: 0x1F668, symBinAddr: 0x10002992C, symSize: 0x24 }
  - { offsetInCU: 0xCE56C, offset: 0x2271AE, size: 0x8, addend: 0x0, symName: __ZN3spp16sparse_hashtableINSt3__14pairIKPKN2vg9mapping_tENS2_INS1_15__list_iteratorIS4_PvEExEEEES6_NS3_9wang_hashIS6_vEENS_15sparse_hash_mapIS6_SB_SE_NS1_8equal_toIS6_EENS_14libc_allocatorISC_EEE9SelectKeyENSK_6SetKeyESH_SJ_E10_move_fromENSN_13MoveDontCopyTERSN_m.cold.2, symObjAddr: 0x1F68C, symBinAddr: 0x100029950, symSize: 0x24 }
  - { offsetInCU: 0xCE776, offset: 0x2273B8, size: 0x8, addend: 0x0, symName: __ZN3spp11sparsegroupINSt3__14pairIKPKN2vg9mapping_tENS2_INS1_15__list_iteratorIS4_PvEExEEEENS_14libc_allocatorISC_EEE8_set_auxISC_EEvRSE_hRT_NS_17integral_constantIbLb0EEE, symObjAddr: 0x7230, symBinAddr: 0x1000088B0, symSize: 0x24C }
  - { offsetInCU: 0xCED91, offset: 0x2279D3, size: 0x8, addend: 0x0, symName: __ZN3spp11sparsetableINSt3__14pairIKPKN2vg9mapping_tENS2_INS1_15__list_iteratorIS4_PvEExEEEENS_14libc_allocatorISC_EEE4moveEmRSC_.cold.1, symObjAddr: 0x1F6B0, symBinAddr: 0x100029974, symSize: 0x24 }
  - { offsetInCU: 0xCEF59, offset: 0x227B9B, size: 0x8, addend: 0x0, symName: __ZNK3spp16sparse_hashtableINSt3__14pairIKPKN2vg9mapping_tENS2_INS1_15__list_iteratorIS4_PvEExEEEES6_NS3_9wang_hashIS6_vEENS_15sparse_hash_mapIS6_SB_SE_NS1_8equal_toIS6_EENS_14libc_allocatorISC_EEE9SelectKeyENSK_6SetKeyESH_SJ_E14_find_positionERS7_.cold.1, symObjAddr: 0x1F6D4, symBinAddr: 0x100029998, symSize: 0x24 }
  - { offsetInCU: 0xCEF87, offset: 0x227BC9, size: 0x8, addend: 0x0, symName: __ZN3spp11sparsetableINSt3__14pairIKPKN2vg9mapping_tENS2_INS1_15__list_iteratorIS4_PvEExEEEENS_14libc_allocatorISC_EEE3setISC_EERSC_mRT_.cold.1, symObjAddr: 0x1F6F8, symBinAddr: 0x1000299BC, symSize: 0x24 }
  - { offsetInCU: 0xCF163, offset: 0x227DA5, size: 0x8, addend: 0x0, symName: __ZN3spp16sparse_hashtableINSt3__14pairIKiPN2vg9mapping_tEEEiNS4_9wang_hashIivEENS_15sparse_hash_mapIiS6_S9_NS1_8equal_toIiEENS_14libc_allocatorIS7_EEE9SelectKeyENSF_6SetKeyESC_SE_E13_resize_deltaEm, symObjAddr: 0x78D4, symBinAddr: 0x100008F54, symSize: 0x2EC }
  - { offsetInCU: 0xCF87F, offset: 0x2284C1, size: 0x8, addend: 0x0, symName: __ZN3spp16sparse_hashtableINSt3__14pairIKiPN2vg9mapping_tEEEiNS4_9wang_hashIivEENS_15sparse_hash_mapIiS6_S9_NS1_8equal_toIiEENS_14libc_allocatorIS7_EEE9SelectKeyENSF_6SetKeyESC_SE_E10_insert_atIS7_EERS7_RT_mb, symObjAddr: 0x7BC0, symBinAddr: 0x100009240, symSize: 0xB8 }
  - { offsetInCU: 0xCF9E5, offset: 0x228627, size: 0x8, addend: 0x0, symName: __ZN3spp16sparse_hashtableINSt3__14pairIKiPN2vg9mapping_tEEEiNS4_9wang_hashIivEENS_15sparse_hash_mapIiS6_S9_NS1_8equal_toIiEENS_14libc_allocatorIS7_EEE9SelectKeyENSF_6SetKeyESC_SE_E14find_or_insertINSF_12DefaultValueEEERS7_RS3_.cold.2, symObjAddr: 0x1F744, symBinAddr: 0x100029A08, symSize: 0x24 }
  - { offsetInCU: 0xCF9FD, offset: 0x22863F, size: 0x8, addend: 0x0, symName: __ZN3spp16sparse_hashtableINSt3__14pairIKiPN2vg9mapping_tEEEiNS4_9wang_hashIivEENS_15sparse_hash_mapIiS6_S9_NS1_8equal_toIiEENS_14libc_allocatorIS7_EEE9SelectKeyENSF_6SetKeyESC_SE_E14find_or_insertINSF_12DefaultValueEEERS7_RS3_.cold.1, symObjAddr: 0x1F71C, symBinAddr: 0x1000299E0, symSize: 0x28 }
  - { offsetInCU: 0xCFBA0, offset: 0x2287E2, size: 0x8, addend: 0x0, symName: __ZN3spp16sparse_hashtableINSt3__14pairIKiPN2vg9mapping_tEEEiNS4_9wang_hashIivEENS_15sparse_hash_mapIiS6_S9_NS1_8equal_toIiEENS_14libc_allocatorIS7_EEE9SelectKeyENSF_6SetKeyESC_SE_E13_maybe_shrinkEv, symObjAddr: 0x7C78, symBinAddr: 0x1000092F8, symSize: 0x174 }
  - { offsetInCU: 0xD006B, offset: 0x228CAD, size: 0x8, addend: 0x0, symName: __ZN3spp16sparse_hashtableINSt3__14pairIKiPN2vg9mapping_tEEEiNS4_9wang_hashIivEENS_15sparse_hash_mapIiS6_S9_NS1_8equal_toIiEENS_14libc_allocatorIS7_EEE9SelectKeyENSF_6SetKeyESC_SE_EC1ENSI_13MoveDontCopyTERSI_m, symObjAddr: 0x7DEC, symBinAddr: 0x10000946C, symSize: 0xEC }
  - { offsetInCU: 0xD0077, offset: 0x228CB9, size: 0x8, addend: 0x0, symName: __ZN3spp16sparse_hashtableINSt3__14pairIKiPN2vg9mapping_tEEEiNS4_9wang_hashIivEENS_15sparse_hash_mapIiS6_S9_NS1_8equal_toIiEENS_14libc_allocatorIS7_EEE9SelectKeyENSF_6SetKeyESC_SE_EC1ENSI_13MoveDontCopyTERSI_m, symObjAddr: 0x7DEC, symBinAddr: 0x10000946C, symSize: 0xEC }
  - { offsetInCU: 0xD0383, offset: 0x228FC5, size: 0x8, addend: 0x0, symName: __ZN3spp11sparsetableINSt3__14pairIKiPN2vg9mapping_tEEENS_14libc_allocatorIS7_EEE3setIS7_EERS7_mRT_, symObjAddr: 0x8574, symBinAddr: 0x100009BF4, symSize: 0x16C }
  - { offsetInCU: 0xD071B, offset: 0x22935D, size: 0x8, addend: 0x0, symName: __ZNSt3__16__treeINS_12__value_typeINS_12basic_stringIcNS_11char_traitsIcEENS_9allocatorIcEEEExEENS_19__map_value_compareIS7_S8_NS_4lessIS7_EELb1EEENS5_IS8_EEE25__emplace_unique_key_argsIS7_JRKNS_21piecewise_construct_tENS_5tupleIJRKS7_EEENSJ_IJEEEEEENS_4pairINS_15__tree_iteratorIS8_PNS_11__tree_nodeIS8_PvEElEEbEERKT_DpOT0_, symObjAddr: 0x86E0, symBinAddr: 0x100009D60, symSize: 0x1E4 }
  - { offsetInCU: 0xD0730, offset: 0x229372, size: 0x8, addend: 0x0, symName: __ZN3spp16sparse_hashtableINSt3__14pairIKiPN2vg9mapping_tEEEiNS4_9wang_hashIivEENS_15sparse_hash_mapIiS6_S9_NS1_8equal_toIiEENS_14libc_allocatorIS7_EEE9SelectKeyENSF_6SetKeyESC_SE_E10_insert_atIS7_EERS7_RT_mb.cold.1, symObjAddr: 0x1F768, symBinAddr: 0x100029A2C, symSize: 0x24 }
  - { offsetInCU: 0xD0774, offset: 0x2293B6, size: 0x8, addend: 0x0, symName: __ZN3spp16sparse_hashtableINSt3__14pairIKiPN2vg9mapping_tEEEiNS4_9wang_hashIivEENS_15sparse_hash_mapIiS6_S9_NS1_8equal_toIiEENS_14libc_allocatorIS7_EEE9SelectKeyENSF_6SetKeyESC_SE_E13_maybe_shrinkEv.cold.2, symObjAddr: 0x1F7B0, symBinAddr: 0x100029A74, symSize: 0x24 }
  - { offsetInCU: 0xD078C, offset: 0x2293CE, size: 0x8, addend: 0x0, symName: __ZN3spp16sparse_hashtableINSt3__14pairIKiPN2vg9mapping_tEEEiNS4_9wang_hashIivEENS_15sparse_hash_mapIiS6_S9_NS1_8equal_toIiEENS_14libc_allocatorIS7_EEE9SelectKeyENSF_6SetKeyESC_SE_E13_maybe_shrinkEv.cold.1, symObjAddr: 0x1F78C, symBinAddr: 0x100029A50, symSize: 0x24 }
  - { offsetInCU: 0xD07F6, offset: 0x229438, size: 0x8, addend: 0x0, symName: __ZN3spp16sparse_hashtableINSt3__14pairIKiPN2vg9mapping_tEEEiNS4_9wang_hashIivEENS_15sparse_hash_mapIiS6_S9_NS1_8equal_toIiEENS_14libc_allocatorIS7_EEE9SelectKeyENSF_6SetKeyESC_SE_E10_move_fromENSI_13MoveDontCopyTERSI_m, symObjAddr: 0x7ED8, symBinAddr: 0x100009558, symSize: 0x350 }
  - { offsetInCU: 0xD10D0, offset: 0x229D12, size: 0x8, addend: 0x0, symName: __ZN3spp16sparse_hashtableINSt3__14pairIKiPN2vg9mapping_tEEEiNS4_9wang_hashIivEENS_15sparse_hash_mapIiS6_S9_NS1_8equal_toIiEENS_14libc_allocatorIS7_EEE9SelectKeyENSF_6SetKeyESC_SE_EC1ENSI_13MoveDontCopyTERSI_m.cold.1, symObjAddr: 0x1F7D4, symBinAddr: 0x100029A98, symSize: 0x54 }
  - { offsetInCU: 0xD13C7, offset: 0x22A009, size: 0x8, addend: 0x0, symName: __ZN3spp16sparse_hashtableINSt3__14pairIKiPN2vg9mapping_tEEEiNS4_9wang_hashIivEENS_15sparse_hash_mapIiS6_S9_NS1_8equal_toIiEENS_14libc_allocatorIS7_EEE9SelectKeyENSF_6SetKeyESC_SE_E5clearEv, symObjAddr: 0x8228, symBinAddr: 0x1000098A8, symSize: 0xD0 }
  - { offsetInCU: 0xD1781, offset: 0x22A3C3, size: 0x8, addend: 0x0, symName: __ZN3spp11sparsetableINSt3__14pairIKiPN2vg9mapping_tEEENS_14libc_allocatorIS7_EEE6resizeEm, symObjAddr: 0x82F8, symBinAddr: 0x100009978, symSize: 0x128 }
  - { offsetInCU: 0xD1A10, offset: 0x22A652, size: 0x8, addend: 0x0, symName: __ZN3spp11sparsetableINSt3__14pairIKiPN2vg9mapping_tEEENS_14libc_allocatorIS7_EEE4moveEmRS7_, symObjAddr: 0x8420, symBinAddr: 0x100009AA0, symSize: 0x154 }
  - { offsetInCU: 0xD1D25, offset: 0x22A967, size: 0x8, addend: 0x0, symName: __ZN3spp11sparsetableINSt3__14pairIKiPN2vg9mapping_tEEENS_14libc_allocatorIS7_EEE3setIS7_EERS7_mRT_, symObjAddr: 0x8574, symBinAddr: 0x100009BF4, symSize: 0x16C }
  - { offsetInCU: 0xD1D31, offset: 0x22A973, size: 0x8, addend: 0x0, symName: __ZN3spp16sparse_hashtableINSt3__14pairIKiPN2vg9mapping_tEEEiNS4_9wang_hashIivEENS_15sparse_hash_mapIiS6_S9_NS1_8equal_toIiEENS_14libc_allocatorIS7_EEE9SelectKeyENSF_6SetKeyESC_SE_E10_move_fromENSI_13MoveDontCopyTERSI_m.cold.1, symObjAddr: 0x1F828, symBinAddr: 0x100029AEC, symSize: 0x24 }
  - { offsetInCU: 0xD1D49, offset: 0x22A98B, size: 0x8, addend: 0x0, symName: __ZN3spp16sparse_hashtableINSt3__14pairIKiPN2vg9mapping_tEEEiNS4_9wang_hashIivEENS_15sparse_hash_mapIiS6_S9_NS1_8equal_toIiEENS_14libc_allocatorIS7_EEE9SelectKeyENSF_6SetKeyESC_SE_E10_move_fromENSI_13MoveDontCopyTERSI_m.cold.2, symObjAddr: 0x1F84C, symBinAddr: 0x100029B10, symSize: 0x24 }
  - { offsetInCU: 0xD2035, offset: 0x22AC77, size: 0x8, addend: 0x0, symName: __ZN3spp11sparsetableINSt3__14pairIKiPN2vg9mapping_tEEENS_14libc_allocatorIS7_EEE4moveEmRS7_.cold.1, symObjAddr: 0x1F870, symBinAddr: 0x100029B34, symSize: 0x24 }
  - { offsetInCU: 0xD2063, offset: 0x22ACA5, size: 0x8, addend: 0x0, symName: __ZN3spp11sparsetableINSt3__14pairIKiPN2vg9mapping_tEEENS_14libc_allocatorIS7_EEE3setIS7_EERS7_mRT_.cold.1, symObjAddr: 0x1F894, symBinAddr: 0x100029B58, symSize: 0x24 }
  - { offsetInCU: 0xD24B3, offset: 0x22B0F5, size: 0x8, addend: 0x0, symName: __ZNK2vg5Paths13get_path_nameEx, symObjAddr: 0x88C4, symBinAddr: 0x100009F44, symSize: 0x110 }
  - { offsetInCU: 0xD27FF, offset: 0x22B441, size: 0x8, addend: 0x0, symName: __ZN2vg5Paths14append_mappingERKNSt3__112basic_stringIcNS1_11char_traitsIcEENS1_9allocatorIcEEEExbmmb, symObjAddr: 0x89D4, symBinAddr: 0x10000A054, symSize: 0x3C }
  - { offsetInCU: 0xD29FC, offset: 0x22B63E, size: 0x8, addend: 0x0, symName: __ZN2vg5Paths15prepend_mappingERKNSt3__112basic_stringIcNS1_11char_traitsIcEENS1_9allocatorIcEEEERKNS_7MappingEb, symObjAddr: 0x8A10, symBinAddr: 0x10000A090, symSize: 0x398 }
  - { offsetInCU: 0xD378D, offset: 0x22C3CF, size: 0x8, addend: 0x0, symName: __ZN2vg5Paths15prepend_mappingERKNSt3__112basic_stringIcNS1_11char_traitsIcEENS1_9allocatorIcEEEExbmmb, symObjAddr: 0x8DA8, symBinAddr: 0x10000A428, symSize: 0x88 }
  - { offsetInCU: 0xD399F, offset: 0x22C5E1, size: 0x8, addend: 0x0, symName: __ZN2vg5Paths17mapping_path_nameEPNS_9mapping_tE, symObjAddr: 0x91E8, symBinAddr: 0x10000A560, symSize: 0x1B8 }
  - { offsetInCU: 0xD3F91, offset: 0x22CBD3, size: 0x8, addend: 0x0, symName: __ZN2vg5Paths14remove_mappingEPNS_9mapping_tE, symObjAddr: 0x93A0, symBinAddr: 0x10000A718, symSize: 0x4AC }
  - { offsetInCU: 0xD3FA3, offset: 0x22CBE5, size: 0x8, addend: 0x0, symName: __ZN2vg5Paths14remove_mappingEPNS_9mapping_tE, symObjAddr: 0x93A0, symBinAddr: 0x10000A718, symSize: 0x4AC }
  - { offsetInCU: 0xD4EA1, offset: 0x22DAE3, size: 0x8, addend: 0x0, symName: __ZN2vg5Paths14insert_mappingENSt3__115__list_iteratorINS_9mapping_tEPvEERKNS1_12basic_stringIcNS1_11char_traitsIcEENS1_9allocatorIcEEEERKS3_, symObjAddr: 0x984C, symBinAddr: 0x10000ABC4, symSize: 0x31C }
  - { offsetInCU: 0xD4EAD, offset: 0x22DAEF, size: 0x8, addend: 0x0, symName: __ZN2vg5Paths14insert_mappingENSt3__115__list_iteratorINS_9mapping_tEPvEERKNS1_12basic_stringIcNS1_11char_traitsIcEENS1_9allocatorIcEEEERKS3_, symObjAddr: 0x984C, symBinAddr: 0x10000ABC4, symSize: 0x31C }
  - { offsetInCU: 0xD5DFB, offset: 0x22EA3D, size: 0x8, addend: 0x0, symName: __ZN3spp16sparse_hashtableINSt3__14pairIKPKN2vg9mapping_tENS2_INS1_15__list_iteratorIS4_PvEExEEEES6_NS3_9wang_hashIS6_vEENS_15sparse_hash_mapIS6_SB_SE_NS1_8equal_toIS6_EENS_14libc_allocatorISC_EEE9SelectKeyENSK_6SetKeyESH_SJ_E4findERS7_, symObjAddr: 0xCF44, symBinAddr: 0x10000D770, symSize: 0x1D8 }
  - { offsetInCU: 0xD6A1E, offset: 0x22F660, size: 0x8, addend: 0x0, symName: __ZN3spp16sparse_hashtableINSt3__14pairIKiPN2vg9mapping_tEEEiNS4_9wang_hashIivEENS_15sparse_hash_mapIiS6_S9_NS1_8equal_toIiEENS_14libc_allocatorIS7_EEE9SelectKeyENSF_6SetKeyESC_SE_E5eraseERS3_, symObjAddr: 0xD11C, symBinAddr: 0x10000D948, symSize: 0x148 }
  - { offsetInCU: 0xD6DFB, offset: 0x22FA3D, size: 0x8, addend: 0x0, symName: __ZN3spp11sparsetableINSt3__14pairIKiPN2vg9mapping_tEEENS_14libc_allocatorIS7_EEE6GrpPos5eraseERSA_, symObjAddr: 0xD264, symBinAddr: 0x10000DA90, symSize: 0xCC }
  - { offsetInCU: 0xD6E07, offset: 0x22FA49, size: 0x8, addend: 0x0, symName: __ZNK3spp16sparse_hashtableINSt3__14pairIKxNS1_3mapIxNS1_3setIPN2vg9mapping_tENS1_4lessIS8_EENS1_9allocatorIS8_EEEENS9_IxEENSB_INS2_IS3_SD_EEEEEEEExNS6_9wang_hashIxvEENS_15sparse_hash_mapIxSH_SK_NS1_8equal_toIxEENS_14libc_allocatorISI_EEE9SelectKeyENSQ_6SetKeyESN_SP_E4findERS3_, symObjAddr: 0xE57C, symBinAddr: 0x10000E778, symSize: 0x1EC }
  - { offsetInCU: 0xD728B, offset: 0x22FECD, size: 0x8, addend: 0x0, symName: __ZN3spp16sparse_hashtableINSt3__14pairIKxNS1_3mapIxNS1_3setIPN2vg9mapping_tENS1_4lessIS8_EENS1_9allocatorIS8_EEEENS9_IxEENSB_INS2_IS3_SD_EEEEEEEExNS6_9wang_hashIxvEENS_15sparse_hash_mapIxSH_SK_NS1_8equal_toIxEENS_14libc_allocatorISI_EEE9SelectKeyENSQ_6SetKeyESN_SP_E5eraseERS3_, symObjAddr: 0xC9B4, symBinAddr: 0x10000D20C, symSize: 0x148 }
  - { offsetInCU: 0xD7668, offset: 0x2302AA, size: 0x8, addend: 0x0, symName: __ZN3spp11sparsetableINSt3__14pairIKxNS1_3mapIxNS1_3setIPN2vg9mapping_tENS1_4lessIS8_EENS1_9allocatorIS8_EEEENS9_IxEENSB_INS2_IS3_SD_EEEEEEEENS_14libc_allocatorISI_EEE6GrpPos5eraseERSL_, symObjAddr: 0xCAFC, symBinAddr: 0x10000D354, symSize: 0xDC }
  - { offsetInCU: 0xD7674, offset: 0x2302B6, size: 0x8, addend: 0x0, symName: __ZN3spp16sparse_hashtableINSt3__14pairIKPKN2vg9mapping_tENS2_INS1_15__list_iteratorIS4_PvEExEEEES6_NS3_9wang_hashIS6_vEENS_15sparse_hash_mapIS6_SB_SE_NS1_8equal_toIS6_EENS_14libc_allocatorISC_EEE9SelectKeyENSK_6SetKeyESH_SJ_E5eraseERS7_, symObjAddr: 0xD400, symBinAddr: 0x10000DC2C, symSize: 0x144 }
  - { offsetInCU: 0xD7A4F, offset: 0x230691, size: 0x8, addend: 0x0, symName: __ZN3spp11sparsetableINSt3__14pairIKPKN2vg9mapping_tENS2_INS1_15__list_iteratorIS4_PvEExEEEENS_14libc_allocatorISC_EEE6GrpPos5eraseERSF_, symObjAddr: 0xD544, symBinAddr: 0x10000DD70, symSize: 0xCC }
  - { offsetInCU: 0xD7A5B, offset: 0x23069D, size: 0x8, addend: 0x0, symName: __ZN2vg5Paths14remove_mappingEPNS_9mapping_tE.cold.1, symObjAddr: 0x1F8B8, symBinAddr: 0x100029B7C, symSize: 0x28 }
  - { offsetInCU: 0xD7CC2, offset: 0x230904, size: 0x8, addend: 0x0, symName: __ZN2vg5Paths14insert_mappingENSt3__115__list_iteratorINS_9mapping_tEPvEERKNS1_12basic_stringIcNS1_11char_traitsIcEENS1_9allocatorIcEEEERKS3_.cold.1, symObjAddr: 0x1F8E0, symBinAddr: 0x100029BA4, symSize: 0x28 }
  - { offsetInCU: 0xD7DB6, offset: 0x2309F8, size: 0x8, addend: 0x0, symName: __ZN2vg5Paths18increment_node_idsEx, symObjAddr: 0x9C74, symBinAddr: 0x10000AFEC, symSize: 0x84 }
  - { offsetInCU: 0xD7E1E, offset: 0x230A60, size: 0x8, addend: 0x0, symName: __ZN2vg5Paths18increment_node_idsEx, symObjAddr: 0x9C74, symBinAddr: 0x10000AFEC, symSize: 0x84 }
  - { offsetInCU: 0xD7E3A, offset: 0x230A7C, size: 0x8, addend: 0x0, symName: __ZN2vg5Paths18increment_node_idsEx, symObjAddr: 0x9C74, symBinAddr: 0x10000AFEC, symSize: 0x84 }
  - { offsetInCU: 0xD7FEE, offset: 0x230C30, size: 0x8, addend: 0x0, symName: __ZN2vg5Paths20rebuild_node_mappingEv, symObjAddr: 0x9CF8, symBinAddr: 0x10000B070, symSize: 0x598 }
  - { offsetInCU: 0xD8D64, offset: 0x2319A6, size: 0x8, addend: 0x0, symName: __ZN3spp16sparse_hashtableINSt3__14pairIKxNS1_3mapIxNS1_3setIPN2vg9mapping_tENS1_4lessIS8_EENS1_9allocatorIS8_EEEENS9_IxEENSB_INS2_IS3_SD_EEEEEEEExNS6_9wang_hashIxvEENS_15sparse_hash_mapIxSH_SK_NS1_8equal_toIxEENS_14libc_allocatorISI_EEE9SelectKeyENSQ_6SetKeyESN_SP_E5clearEv, symObjAddr: 0xBB6C, symBinAddr: 0x10000C5A0, symSize: 0x104 }
  - { offsetInCU: 0xD9297, offset: 0x231ED9, size: 0x8, addend: 0x0, symName: __ZN2vg5Paths13swap_node_idsERKNSt3__18functionIFxRKxEEE, symObjAddr: 0xA290, symBinAddr: 0x10000B608, symSize: 0xEC }
  - { offsetInCU: 0xD98C3, offset: 0x232505, size: 0x8, addend: 0x0, symName: __ZN3spp16sparse_hashtableINSt3__14pairIKxxEExN2vg9wang_hashIxvEENS_15sparse_hash_mapIxxS7_NS1_8equal_toIxEENS_14libc_allocatorIS4_EEE9SelectKeyENSD_6SetKeyESA_SC_E4findERS3_, symObjAddr: 0xA6EC, symBinAddr: 0x10000B6F4, symSize: 0x1EC }
  - { offsetInCU: 0xDA0BA, offset: 0x232CFC, size: 0x8, addend: 0x0, symName: __ZN3spp16sparse_hashtableINSt3__14pairIKxxEExN2vg9wang_hashIxvEENS_15sparse_hash_mapIxxS7_NS1_8equal_toIxEENS_14libc_allocatorIS4_EEE9SelectKeyENSD_6SetKeyESA_SC_E4findERS3_.cold.1, symObjAddr: 0x1F908, symBinAddr: 0x100029BCC, symSize: 0x28 }
  - { offsetInCU: 0xDA7E1, offset: 0x233423, size: 0x8, addend: 0x0, symName: __ZN3spp16sparse_hashtableINSt3__14pairIKxNS1_3mapIxNS1_3setIPN2vg9mapping_tENS1_4lessIS8_EENS1_9allocatorIS8_EEEENS9_IxEENSB_INS2_IS3_SD_EEEEEEEExNS6_9wang_hashIxvEENS_15sparse_hash_mapIxSH_SK_NS1_8equal_toIxEENS_14libc_allocatorISI_EEE9SelectKeyENSQ_6SetKeyESN_SP_E13_resize_deltaEm, symObjAddr: 0xB17C, symBinAddr: 0x10000BBB0, symSize: 0x320 }
  - { offsetInCU: 0xDB026, offset: 0x233C68, size: 0x8, addend: 0x0, symName: __ZNK3spp16sparse_hashtableINSt3__14pairIKxNS1_3mapIxNS1_3setIPN2vg9mapping_tENS1_4lessIS8_EENS1_9allocatorIS8_EEEENS9_IxEENSB_INS2_IS3_SD_EEEEEEEExNS6_9wang_hashIxvEENS_15sparse_hash_mapIxSH_SK_NS1_8equal_toIxEENS_14libc_allocatorISI_EEE9SelectKeyENSQ_6SetKeyESN_SP_E14_find_positionERS3_, symObjAddr: 0xC380, symBinAddr: 0x10000CDB4, symSize: 0x144 }
  - { offsetInCU: 0xDB3AD, offset: 0x233FEF, size: 0x8, addend: 0x0, symName: __ZN3spp11sparsetableINSt3__14pairIKxNS1_3mapIxNS1_3setIPN2vg9mapping_tENS1_4lessIS8_EENS1_9allocatorIS8_EEEENS9_IxEENSB_INS2_IS3_SD_EEEEEEEENS_14libc_allocatorISI_EEE3setISI_EERSI_mRT_, symObjAddr: 0xC4C4, symBinAddr: 0x10000CEF8, symSize: 0x138 }
  - { offsetInCU: 0xDB3B9, offset: 0x233FFB, size: 0x8, addend: 0x0, symName: __ZN3spp16sparse_hashtableINSt3__14pairIKxNS1_3mapIxNS1_3setIPN2vg9mapping_tENS1_4lessIS8_EENS1_9allocatorIS8_EEEENS9_IxEENSB_INS2_IS3_SD_EEEEEEEExNS6_9wang_hashIxvEENS_15sparse_hash_mapIxSH_SK_NS1_8equal_toIxEENS_14libc_allocatorISI_EEE9SelectKeyENSQ_6SetKeyESN_SP_E10_insert_atISI_EERSI_RT_mb, symObjAddr: 0xB49C, symBinAddr: 0x10000BED0, symSize: 0xB8 }
  - { offsetInCU: 0xDB51F, offset: 0x234161, size: 0x8, addend: 0x0, symName: __ZN3spp16sparse_hashtableINSt3__14pairIKxNS1_3mapIxNS1_3setIPN2vg9mapping_tENS1_4lessIS8_EENS1_9allocatorIS8_EEEENS9_IxEENSB_INS2_IS3_SD_EEEEEEEExNS6_9wang_hashIxvEENS_15sparse_hash_mapIxSH_SK_NS1_8equal_toIxEENS_14libc_allocatorISI_EEE9SelectKeyENSQ_6SetKeyESN_SP_E14find_or_insertINSQ_12DefaultValueEEERSI_RS3_.cold.1, symObjAddr: 0x1F930, symBinAddr: 0x100029BF4, symSize: 0x24 }
  - { offsetInCU: 0xDB836, offset: 0x234478, size: 0x8, addend: 0x0, symName: __ZN3spp16sparse_hashtableINSt3__14pairIKxNS1_3mapIxNS1_3setIPN2vg9mapping_tENS1_4lessIS8_EENS1_9allocatorIS8_EEEENS9_IxEENSB_INS2_IS3_SD_EEEEEEEExNS6_9wang_hashIxvEENS_15sparse_hash_mapIxSH_SK_NS1_8equal_toIxEENS_14libc_allocatorISI_EEE9SelectKeyENSQ_6SetKeyESN_SP_E13_maybe_shrinkEv, symObjAddr: 0xB554, symBinAddr: 0x10000BF88, symSize: 0x1A8 }
  - { offsetInCU: 0xDBE2B, offset: 0x234A6D, size: 0x8, addend: 0x0, symName: __ZN3spp16sparse_hashtableINSt3__14pairIKxNS1_3mapIxNS1_3setIPN2vg9mapping_tENS1_4lessIS8_EENS1_9allocatorIS8_EEEENS9_IxEENSB_INS2_IS3_SD_EEEEEEEExNS6_9wang_hashIxvEENS_15sparse_hash_mapIxSH_SK_NS1_8equal_toIxEENS_14libc_allocatorISI_EEE9SelectKeyENSQ_6SetKeyESN_SP_EC1ENST_13MoveDontCopyTERST_m, symObjAddr: 0xB6FC, symBinAddr: 0x10000C130, symSize: 0xEC }
  - { offsetInCU: 0xDBE37, offset: 0x234A79, size: 0x8, addend: 0x0, symName: __ZN3spp16sparse_hashtableINSt3__14pairIKxNS1_3mapIxNS1_3setIPN2vg9mapping_tENS1_4lessIS8_EENS1_9allocatorIS8_EEEENS9_IxEENSB_INS2_IS3_SD_EEEEEEEExNS6_9wang_hashIxvEENS_15sparse_hash_mapIxSH_SK_NS1_8equal_toIxEENS_14libc_allocatorISI_EEE9SelectKeyENSQ_6SetKeyESN_SP_EC1ENST_13MoveDontCopyTERST_m, symObjAddr: 0xB6FC, symBinAddr: 0x10000C130, symSize: 0xEC }
  - { offsetInCU: 0xDC143, offset: 0x234D85, size: 0x8, addend: 0x0, symName: __ZN3spp11sparsetableINSt3__14pairIKxNS1_3mapIxNS1_3setIPN2vg9mapping_tENS1_4lessIS8_EENS1_9allocatorIS8_EEEENS9_IxEENSB_INS2_IS3_SD_EEEEEEEENS_14libc_allocatorISI_EEE3setISI_EERSI_mRT_, symObjAddr: 0xC4C4, symBinAddr: 0x10000CEF8, symSize: 0x138 }
  - { offsetInCU: 0xDC47B, offset: 0x2350BD, size: 0x8, addend: 0x0, symName: '__ZNSt3__14listIN2vg9mapping_tENS_9allocatorIS2_EEE6__sortIZNS1_5Paths20sort_by_mapping_rankEvE3$_4EENS_15__list_iteratorIS2_PvEESB_SB_mRT_', symObjAddr: 0xC5FC, symBinAddr: 0x10000D030, symSize: 0x1DC }
  - { offsetInCU: 0xDC490, offset: 0x2350D2, size: 0x8, addend: 0x0, symName: __ZN3spp16sparse_hashtableINSt3__14pairIKxNS1_3mapIxNS1_3setIPN2vg9mapping_tENS1_4lessIS8_EENS1_9allocatorIS8_EEEENS9_IxEENSB_INS2_IS3_SD_EEEEEEEExNS6_9wang_hashIxvEENS_15sparse_hash_mapIxSH_SK_NS1_8equal_toIxEENS_14libc_allocatorISI_EEE9SelectKeyENSQ_6SetKeyESN_SP_E10_insert_atISI_EERSI_RT_mb.cold.1, symObjAddr: 0x1F954, symBinAddr: 0x100029C18, symSize: 0x24 }
  - { offsetInCU: 0xDC4D4, offset: 0x235116, size: 0x8, addend: 0x0, symName: __ZN3spp16sparse_hashtableINSt3__14pairIKxNS1_3mapIxNS1_3setIPN2vg9mapping_tENS1_4lessIS8_EENS1_9allocatorIS8_EEEENS9_IxEENSB_INS2_IS3_SD_EEEEEEEExNS6_9wang_hashIxvEENS_15sparse_hash_mapIxSH_SK_NS1_8equal_toIxEENS_14libc_allocatorISI_EEE9SelectKeyENSQ_6SetKeyESN_SP_E13_maybe_shrinkEv.cold.2, symObjAddr: 0x1F99C, symBinAddr: 0x100029C60, symSize: 0x24 }
  - { offsetInCU: 0xDC4EC, offset: 0x23512E, size: 0x8, addend: 0x0, symName: __ZN3spp16sparse_hashtableINSt3__14pairIKxNS1_3mapIxNS1_3setIPN2vg9mapping_tENS1_4lessIS8_EENS1_9allocatorIS8_EEEENS9_IxEENSB_INS2_IS3_SD_EEEEEEEExNS6_9wang_hashIxvEENS_15sparse_hash_mapIxSH_SK_NS1_8equal_toIxEENS_14libc_allocatorISI_EEE9SelectKeyENSQ_6SetKeyESN_SP_E13_maybe_shrinkEv.cold.1, symObjAddr: 0x1F978, symBinAddr: 0x100029C3C, symSize: 0x24 }
  - { offsetInCU: 0xDC556, offset: 0x235198, size: 0x8, addend: 0x0, symName: __ZN3spp16sparse_hashtableINSt3__14pairIKxNS1_3mapIxNS1_3setIPN2vg9mapping_tENS1_4lessIS8_EENS1_9allocatorIS8_EEEENS9_IxEENSB_INS2_IS3_SD_EEEEEEEExNS6_9wang_hashIxvEENS_15sparse_hash_mapIxSH_SK_NS1_8equal_toIxEENS_14libc_allocatorISI_EEE9SelectKeyENSQ_6SetKeyESN_SP_E10_move_fromENST_13MoveDontCopyTERST_m, symObjAddr: 0xB7E8, symBinAddr: 0x10000C21C, symSize: 0x384 }
  - { offsetInCU: 0xDCF51, offset: 0x235B93, size: 0x8, addend: 0x0, symName: __ZN3spp16sparse_hashtableINSt3__14pairIKxNS1_3mapIxNS1_3setIPN2vg9mapping_tENS1_4lessIS8_EENS1_9allocatorIS8_EEEENS9_IxEENSB_INS2_IS3_SD_EEEEEEEExNS6_9wang_hashIxvEENS_15sparse_hash_mapIxSH_SK_NS1_8equal_toIxEENS_14libc_allocatorISI_EEE9SelectKeyENSQ_6SetKeyESN_SP_EC1ENST_13MoveDontCopyTERST_m.cold.1, symObjAddr: 0x1F9C0, symBinAddr: 0x100029C84, symSize: 0x90 }
  - { offsetInCU: 0xDD368, offset: 0x235FAA, size: 0x8, addend: 0x0, symName: __ZN3spp11sparsetableINSt3__14pairIKxNS1_3mapIxNS1_3setIPN2vg9mapping_tENS1_4lessIS8_EENS1_9allocatorIS8_EEEENS9_IxEENSB_INS2_IS3_SD_EEEEEEEENS_14libc_allocatorISI_EEE6resizeEm, symObjAddr: 0xBC70, symBinAddr: 0x10000C6A4, symSize: 0x154 }
  - { offsetInCU: 0xDD720, offset: 0x236362, size: 0x8, addend: 0x0, symName: __ZN3spp11sparsetableINSt3__14pairIKxNS1_3mapIxNS1_3setIPN2vg9mapping_tENS1_4lessIS8_EENS1_9allocatorIS8_EEEENS9_IxEENSB_INS2_IS3_SD_EEEEEEEENS_14libc_allocatorISI_EEE4moveEmRSI_, symObjAddr: 0xBDC4, symBinAddr: 0x10000C7F8, symSize: 0x11C }
  - { offsetInCU: 0xDD9B1, offset: 0x2365F3, size: 0x8, addend: 0x0, symName: __ZN3spp11sparsegroupINSt3__14pairIKxNS1_3mapIxNS1_3setIPN2vg9mapping_tENS1_4lessIS8_EENS1_9allocatorIS8_EEEENS9_IxEENSB_INS2_IS3_SD_EEEEEEEENS_14libc_allocatorISI_EEE8_set_auxISI_EEvRSK_hRT_NS_17integral_constantIbLb0EEE, symObjAddr: 0xBEE0, symBinAddr: 0x10000C914, symSize: 0x2C4 }
  - { offsetInCU: 0xDD9BD, offset: 0x2365FF, size: 0x8, addend: 0x0, symName: __ZN3spp16sparse_hashtableINSt3__14pairIKxNS1_3mapIxNS1_3setIPN2vg9mapping_tENS1_4lessIS8_EENS1_9allocatorIS8_EEEENS9_IxEENSB_INS2_IS3_SD_EEEEEEEExNS6_9wang_hashIxvEENS_15sparse_hash_mapIxSH_SK_NS1_8equal_toIxEENS_14libc_allocatorISI_EEE9SelectKeyENSQ_6SetKeyESN_SP_E10_move_fromENST_13MoveDontCopyTERST_m.cold.1, symObjAddr: 0x1FA50, symBinAddr: 0x100029D14, symSize: 0x24 }
  - { offsetInCU: 0xDD9D5, offset: 0x236617, size: 0x8, addend: 0x0, symName: __ZN3spp16sparse_hashtableINSt3__14pairIKxNS1_3mapIxNS1_3setIPN2vg9mapping_tENS1_4lessIS8_EENS1_9allocatorIS8_EEEENS9_IxEENSB_INS2_IS3_SD_EEEEEEEExNS6_9wang_hashIxvEENS_15sparse_hash_mapIxSH_SK_NS1_8equal_toIxEENS_14libc_allocatorISI_EEE9SelectKeyENSQ_6SetKeyESN_SP_E10_move_fromENST_13MoveDontCopyTERST_m.cold.2, symObjAddr: 0x1FA74, symBinAddr: 0x100029D38, symSize: 0x24 }
  - { offsetInCU: 0xDDC30, offset: 0x236872, size: 0x8, addend: 0x0, symName: __ZN3spp11sparsegroupINSt3__14pairIKxNS1_3mapIxNS1_3setIPN2vg9mapping_tENS1_4lessIS8_EENS1_9allocatorIS8_EEEENS9_IxEENSB_INS2_IS3_SD_EEEEEEEENS_14libc_allocatorISI_EEE8_set_auxISI_EEvRSK_hRT_NS_17integral_constantIbLb0EEE, symObjAddr: 0xBEE0, symBinAddr: 0x10000C914, symSize: 0x2C4 }
  - { offsetInCU: 0xDE37E, offset: 0x236FC0, size: 0x8, addend: 0x0, symName: __ZNSt3__116__rotate_forwardB8ue170006INS_17_ClassicAlgPolicyEPNS_4pairIxNS_3mapIxNS_3setIPN2vg9mapping_tENS_4lessIS7_EENS_9allocatorIS7_EEEENS8_IxEENSA_INS2_IKxSC_EEEEEEEEEET0_SK_SK_SK_, symObjAddr: 0xC1A4, symBinAddr: 0x10000CBD8, symSize: 0x1DC }
  - { offsetInCU: 0xDE393, offset: 0x236FD5, size: 0x8, addend: 0x0, symName: __ZN3spp11sparsetableINSt3__14pairIKxNS1_3mapIxNS1_3setIPN2vg9mapping_tENS1_4lessIS8_EENS1_9allocatorIS8_EEEENS9_IxEENSB_INS2_IS3_SD_EEEEEEEENS_14libc_allocatorISI_EEE4moveEmRSI_.cold.1, symObjAddr: 0x1FA98, symBinAddr: 0x100029D5C, symSize: 0x24 }
  - { offsetInCU: 0xDE5EC, offset: 0x23722E, size: 0x8, addend: 0x0, symName: __ZNK3spp16sparse_hashtableINSt3__14pairIKxNS1_3mapIxNS1_3setIPN2vg9mapping_tENS1_4lessIS8_EENS1_9allocatorIS8_EEEENS9_IxEENSB_INS2_IS3_SD_EEEEEEEExNS6_9wang_hashIxvEENS_15sparse_hash_mapIxSH_SK_NS1_8equal_toIxEENS_14libc_allocatorISI_EEE9SelectKeyENSQ_6SetKeyESN_SP_E14_find_positionERS3_.cold.1, symObjAddr: 0x1FABC, symBinAddr: 0x100029D80, symSize: 0x24 }
  - { offsetInCU: 0xDE61A, offset: 0x23725C, size: 0x8, addend: 0x0, symName: __ZN3spp11sparsetableINSt3__14pairIKxNS1_3mapIxNS1_3setIPN2vg9mapping_tENS1_4lessIS8_EENS1_9allocatorIS8_EEEENS9_IxEENSB_INS2_IS3_SD_EEEEEEEENS_14libc_allocatorISI_EEE3setISI_EERSI_mRT_.cold.1, symObjAddr: 0x1FAE0, symBinAddr: 0x100029DA4, symSize: 0x24 }
  - { offsetInCU: 0xDE648, offset: 0x23728A, size: 0x8, addend: 0x0, symName: __ZN3spp11sparsetableINSt3__14pairIKxNS1_3mapIxNS1_3setIPN2vg9mapping_tENS1_4lessIS8_EENS1_9allocatorIS8_EEEENS9_IxEENSB_INS2_IS3_SD_EEEEEEEENS_14libc_allocatorISI_EEE6GrpPos5eraseERSL_, symObjAddr: 0xCAFC, symBinAddr: 0x10000D354, symSize: 0xDC }
  - { offsetInCU: 0xDE94A, offset: 0x23758C, size: 0x8, addend: 0x0, symName: __ZN3spp11sparsegroupINSt3__14pairIKxNS1_3mapIxNS1_3setIPN2vg9mapping_tENS1_4lessIS8_EENS1_9allocatorIS8_EEEENS9_IxEENSB_INS2_IS3_SD_EEEEEEEENS_14libc_allocatorISI_EEE16_group_erase_auxERSK_hNS_17integral_constantIbLb0EEE, symObjAddr: 0xCBD8, symBinAddr: 0x10000D430, symSize: 0x250 }
  - { offsetInCU: 0xDE956, offset: 0x237598, size: 0x8, addend: 0x0, symName: __ZN3spp16sparse_hashtableINSt3__14pairIKxNS1_3mapIxNS1_3setIPN2vg9mapping_tENS1_4lessIS8_EENS1_9allocatorIS8_EEEENS9_IxEENSB_INS2_IS3_SD_EEEEEEEExNS6_9wang_hashIxvEENS_15sparse_hash_mapIxSH_SK_NS1_8equal_toIxEENS_14libc_allocatorISI_EEE9SelectKeyENSQ_6SetKeyESN_SP_E5eraseERS3_.cold.1, symObjAddr: 0x1FB04, symBinAddr: 0x100029DC8, symSize: 0x24 }
  - { offsetInCU: 0xDEA24, offset: 0x237666, size: 0x8, addend: 0x0, symName: __ZN3spp11sparsegroupINSt3__14pairIKxNS1_3mapIxNS1_3setIPN2vg9mapping_tENS1_4lessIS8_EENS1_9allocatorIS8_EEEENS9_IxEENSB_INS2_IS3_SD_EEEEEEEENS_14libc_allocatorISI_EEE16_group_erase_auxERSK_hNS_17integral_constantIbLb0EEE, symObjAddr: 0xCBD8, symBinAddr: 0x10000D430, symSize: 0x250 }
  - { offsetInCU: 0xDF0BC, offset: 0x237CFE, size: 0x8, addend: 0x0, symName: __ZN3spp11sparsetableINSt3__14pairIKxNS1_3mapIxNS1_3setIPN2vg9mapping_tENS1_4lessIS8_EENS1_9allocatorIS8_EEEENS9_IxEENSB_INS2_IS3_SD_EEEEEEEENS_14libc_allocatorISI_EEE6GrpPos5eraseERSL_.cold.1, symObjAddr: 0x1FB28, symBinAddr: 0x100029DEC, symSize: 0x24 }
  - { offsetInCU: 0xDF0D4, offset: 0x237D16, size: 0x8, addend: 0x0, symName: __ZN3spp11sparsegroupINSt3__14pairIKxNS1_3mapIxNS1_3setIPN2vg9mapping_tENS1_4lessIS8_EENS1_9allocatorIS8_EEEENS9_IxEENSB_INS2_IS3_SD_EEEEEEEENS_14libc_allocatorISI_EEE16_group_erase_auxERSK_hNS_17integral_constantIbLb0EEE.cold.1, symObjAddr: 0x1FB4C, symBinAddr: 0x100029E10, symSize: 0x28 }
  - { offsetInCU: 0xDF0EC, offset: 0x237D2E, size: 0x8, addend: 0x0, symName: __ZNK2vg5Paths16has_node_mappingEx, symObjAddr: 0xCE54, symBinAddr: 0x10000D680, symSize: 0xF0 }
  - { offsetInCU: 0xDF249, offset: 0x237E8B, size: 0x8, addend: 0x0, symName: __ZN3spp16sparse_hashtableINSt3__14pairIKPKN2vg9mapping_tENS2_INS1_15__list_iteratorIS4_PvEExEEEES6_NS3_9wang_hashIS6_vEENS_15sparse_hash_mapIS6_SB_SE_NS1_8equal_toIS6_EENS_14libc_allocatorISC_EEE9SelectKeyENSK_6SetKeyESH_SJ_E4findERS7_.cold.1, symObjAddr: 0x1FB74, symBinAddr: 0x100029E38, symSize: 0x28 }
  - { offsetInCU: 0xDF261, offset: 0x237EA3, size: 0x8, addend: 0x0, symName: __ZN3spp11sparsetableINSt3__14pairIKiPN2vg9mapping_tEEENS_14libc_allocatorIS7_EEE6GrpPos5eraseERSA_, symObjAddr: 0xD264, symBinAddr: 0x10000DA90, symSize: 0xCC }
  - { offsetInCU: 0xDF460, offset: 0x2380A2, size: 0x8, addend: 0x0, symName: __ZN3spp11sparsegroupINSt3__14pairIKiPN2vg9mapping_tEEENS_14libc_allocatorIS7_EEE16_group_erase_auxERS9_hNS_17integral_constantIbLb1EEE, symObjAddr: 0xD330, symBinAddr: 0x10000DB5C, symSize: 0xD0 }
  - { offsetInCU: 0xDF46C, offset: 0x2380AE, size: 0x8, addend: 0x0, symName: __ZN3spp16sparse_hashtableINSt3__14pairIKiPN2vg9mapping_tEEEiNS4_9wang_hashIivEENS_15sparse_hash_mapIiS6_S9_NS1_8equal_toIiEENS_14libc_allocatorIS7_EEE9SelectKeyENSF_6SetKeyESC_SE_E5eraseERS3_.cold.1, symObjAddr: 0x1FB9C, symBinAddr: 0x100029E60, symSize: 0x24 }
  - { offsetInCU: 0xDF53A, offset: 0x23817C, size: 0x8, addend: 0x0, symName: __ZN3spp11sparsegroupINSt3__14pairIKiPN2vg9mapping_tEEENS_14libc_allocatorIS7_EEE16_group_erase_auxERS9_hNS_17integral_constantIbLb1EEE, symObjAddr: 0xD330, symBinAddr: 0x10000DB5C, symSize: 0xD0 }
  - { offsetInCU: 0xDF6D5, offset: 0x238317, size: 0x8, addend: 0x0, symName: __ZN3spp16sparse_hashtableINSt3__14pairIKPKN2vg9mapping_tENS2_INS1_15__list_iteratorIS4_PvEExEEEES6_NS3_9wang_hashIS6_vEENS_15sparse_hash_mapIS6_SB_SE_NS1_8equal_toIS6_EENS_14libc_allocatorISC_EEE9SelectKeyENSK_6SetKeyESH_SJ_E5eraseERS7_, symObjAddr: 0xD400, symBinAddr: 0x10000DC2C, symSize: 0x144 }
  - { offsetInCU: 0xDF6E1, offset: 0x238323, size: 0x8, addend: 0x0, symName: __ZN3spp11sparsetableINSt3__14pairIKiPN2vg9mapping_tEEENS_14libc_allocatorIS7_EEE6GrpPos5eraseERSA_.cold.1, symObjAddr: 0x1FBC0, symBinAddr: 0x100029E84, symSize: 0x24 }
  - { offsetInCU: 0xDF6F9, offset: 0x23833B, size: 0x8, addend: 0x0, symName: __ZN3spp11sparsegroupINSt3__14pairIKiPN2vg9mapping_tEEENS_14libc_allocatorIS7_EEE16_group_erase_auxERS9_hNS_17integral_constantIbLb1EEE.cold.1, symObjAddr: 0x1FBE4, symBinAddr: 0x100029EA8, symSize: 0x28 }
  - { offsetInCU: 0xDF711, offset: 0x238353, size: 0x8, addend: 0x0, symName: __ZN3spp11sparsegroupINSt3__14pairIKiPN2vg9mapping_tEEENS_14libc_allocatorIS7_EEE16_group_erase_auxERS9_hNS_17integral_constantIbLb1EEE.cold.2, symObjAddr: 0x1FC0C, symBinAddr: 0x100029ED0, symSize: 0x28 }
  - { offsetInCU: 0xDF729, offset: 0x23836B, size: 0x8, addend: 0x0, symName: __ZN3spp11sparsetableINSt3__14pairIKPKN2vg9mapping_tENS2_INS1_15__list_iteratorIS4_PvEExEEEENS_14libc_allocatorISC_EEE6GrpPos5eraseERSF_, symObjAddr: 0xD544, symBinAddr: 0x10000DD70, symSize: 0xCC }
  - { offsetInCU: 0xDF928, offset: 0x23856A, size: 0x8, addend: 0x0, symName: __ZN3spp11sparsegroupINSt3__14pairIKPKN2vg9mapping_tENS2_INS1_15__list_iteratorIS4_PvEExEEEENS_14libc_allocatorISC_EEE16_group_erase_auxERSE_hNS_17integral_constantIbLb0EEE, symObjAddr: 0xD610, symBinAddr: 0x10000DE3C, symSize: 0x2C8 }
  - { offsetInCU: 0xDF934, offset: 0x238576, size: 0x8, addend: 0x0, symName: __ZN3spp16sparse_hashtableINSt3__14pairIKPKN2vg9mapping_tENS2_INS1_15__list_iteratorIS4_PvEExEEEES6_NS3_9wang_hashIS6_vEENS_15sparse_hash_mapIS6_SB_SE_NS1_8equal_toIS6_EENS_14libc_allocatorISC_EEE9SelectKeyENSK_6SetKeyESH_SJ_E5eraseERS7_.cold.1, symObjAddr: 0x1FC34, symBinAddr: 0x100029EF8, symSize: 0x24 }
  - { offsetInCU: 0xDFA02, offset: 0x238644, size: 0x8, addend: 0x0, symName: __ZN3spp11sparsegroupINSt3__14pairIKPKN2vg9mapping_tENS2_INS1_15__list_iteratorIS4_PvEExEEEENS_14libc_allocatorISC_EEE16_group_erase_auxERSE_hNS_17integral_constantIbLb0EEE, symObjAddr: 0xD610, symBinAddr: 0x10000DE3C, symSize: 0x2C8 }
  - { offsetInCU: 0xDFFE1, offset: 0x238C23, size: 0x8, addend: 0x0, symName: __ZN3spp11sparsetableINSt3__14pairIKPKN2vg9mapping_tENS2_INS1_15__list_iteratorIS4_PvEExEEEENS_14libc_allocatorISC_EEE6GrpPos5eraseERSF_.cold.1, symObjAddr: 0x1FC58, symBinAddr: 0x100029F1C, symSize: 0x24 }
  - { offsetInCU: 0xDFFF9, offset: 0x238C3B, size: 0x8, addend: 0x0, symName: __ZN3spp11sparsegroupINSt3__14pairIKPKN2vg9mapping_tENS2_INS1_15__list_iteratorIS4_PvEExEEEENS_14libc_allocatorISC_EEE16_group_erase_auxERSE_hNS_17integral_constantIbLb0EEE.cold.1, symObjAddr: 0x1FC7C, symBinAddr: 0x100029F40, symSize: 0x28 }
  - { offsetInCU: 0xE03BB, offset: 0x238FFD, size: 0x8, addend: 0x0, symName: __ZNSt3__16__treeINS_12__value_typeINS_12basic_stringIcNS_11char_traitsIcEENS_9allocatorIcEEEENS_4listIN2vg9mapping_tENS5_ISA_EEEEEENS_19__map_value_compareIS7_SD_NS_4lessIS7_EELb1EEENS5_ISD_EEE14__erase_uniqueIS7_EEmRKT_, symObjAddr: 0xDD04, symBinAddr: 0x10000E104, symSize: 0x134 }
  - { offsetInCU: 0xE0716, offset: 0x239358, size: 0x8, addend: 0x0, symName: __ZNSt3__16__treeINS_12__value_typeINS_12basic_stringIcNS_11char_traitsIcEENS_9allocatorIcEEEENS_4listIN2vg9mapping_tENS5_ISA_EEEEEENS_19__map_value_compareIS7_SD_NS_4lessIS7_EELb1EEENS5_ISD_EEE5eraseENS_21__tree_const_iteratorISD_PNS_11__tree_nodeISD_PvEElEE, symObjAddr: 0xDE38, symBinAddr: 0x10000E238, symSize: 0xDC }
  - { offsetInCU: 0xE0E0D, offset: 0x239A4F, size: 0x8, addend: 0x0, symName: __ZN2vg5Paths11remove_pathERKNSt3__112basic_stringIcNS1_11char_traitsIcEENS1_9allocatorIcEEEE, symObjAddr: 0xDF14, symBinAddr: 0x10000E314, symSize: 0x1B0 }
  - { offsetInCU: 0xE14D9, offset: 0x23A11B, size: 0x8, addend: 0x0, symName: __ZNSt3__16__treeINS_12__value_typeINS_12basic_stringIcNS_11char_traitsIcEENS_9allocatorIcEEEEN2vg8hash_mapIiPNS8_9mapping_tEEEEENS_19__map_value_compareIS7_SD_NS_4lessIS7_EELb1EEENS5_ISD_EEE14__erase_uniqueIS7_EEmRKT_, symObjAddr: 0xE0C4, symBinAddr: 0x10000E4C4, symSize: 0x134 }
  - { offsetInCU: 0xE1834, offset: 0x23A476, size: 0x8, addend: 0x0, symName: __ZNSt3__16__treeINS_12__value_typeINS_12basic_stringIcNS_11char_traitsIcEENS_9allocatorIcEEEEN2vg8hash_mapIiPNS8_9mapping_tEEEEENS_19__map_value_compareIS7_SD_NS_4lessIS7_EELb1EEENS5_ISD_EEE5eraseENS_21__tree_const_iteratorISD_PNS_11__tree_nodeISD_PvEElEE, symObjAddr: 0xE1F8, symBinAddr: 0x10000E5F8, symSize: 0xEC }
  - { offsetInCU: 0xE1D5A, offset: 0x23A99C, size: 0x8, addend: 0x0, symName: __ZNSt3__16__treeINS_12basic_stringIcNS_11char_traitsIcEENS_9allocatorIcEEEENS_4lessIS6_EENS4_IS6_EEE7destroyEPNS_11__tree_nodeIS6_PvEE, symObjAddr: 0xE4E8, symBinAddr: 0x10000E6E4, symSize: 0x60 }
  - { offsetInCU: 0xE1F92, offset: 0x23ABD4, size: 0x8, addend: 0x0, symName: __ZN2vg5Paths11create_pathERKNSt3__112basic_stringIcNS1_11char_traitsIcEENS1_9allocatorIcEEEE, symObjAddr: 0xE548, symBinAddr: 0x10000E744, symSize: 0x34 }
  - { offsetInCU: 0xE2032, offset: 0x23AC74, size: 0x8, addend: 0x0, symName: __ZNK3spp16sparse_hashtableINSt3__14pairIKxNS1_3mapIxNS1_3setIPN2vg9mapping_tENS1_4lessIS8_EENS1_9allocatorIS8_EEEENS9_IxEENSB_INS2_IS3_SD_EEEEEEEExNS6_9wang_hashIxvEENS_15sparse_hash_mapIxSH_SK_NS1_8equal_toIxEENS_14libc_allocatorISI_EEE9SelectKeyENSQ_6SetKeyESN_SP_E4findERS3_.cold.1, symObjAddr: 0x1FCA4, symBinAddr: 0x100029F68, symSize: 0x28 }
  - { offsetInCU: 0xE207A, offset: 0x23ACBC, size: 0x8, addend: 0x0, symName: __ZNK2vg5Paths16has_node_mappingEPNS_4NodeE, symObjAddr: 0xE768, symBinAddr: 0x10000E964, symSize: 0xF4 }
  - { offsetInCU: 0xE2220, offset: 0x23AE62, size: 0x8, addend: 0x0, symName: __ZNK2vg5Paths16get_node_mappingEx, symObjAddr: 0xE85C, symBinAddr: 0x10000EA58, symSize: 0x28 }
  - { offsetInCU: 0xE226E, offset: 0x23AEB0, size: 0x8, addend: 0x0, symName: __ZNK3spp15sparse_hash_mapIxNSt3__13mapIxNS1_3setIPN2vg9mapping_tENS1_4lessIS6_EENS1_9allocatorIS6_EEEENS7_IxEENS9_INS1_4pairIKxSB_EEEEEENS4_9wang_hashIxvEENS1_8equal_toIxEENS_14libc_allocatorINSD_ISE_SH_EEEEE2atERSE_, symObjAddr: 0xE884, symBinAddr: 0x10000EA80, symSize: 0x154 }
  - { offsetInCU: 0xE27BB, offset: 0x23B3FD, size: 0x8, addend: 0x0, symName: __ZN2vg5Paths29get_node_mapping_by_path_nameEx, symObjAddr: 0xEA08, symBinAddr: 0x10000EBD4, symSize: 0x10C }
  - { offsetInCU: 0xE2C4B, offset: 0x23B88D, size: 0x8, addend: 0x0, symName: __ZNSt3__16__treeINS_12__value_typeINS_12basic_stringIcNS_11char_traitsIcEENS_9allocatorIcEEEENS_3setIPN2vg9mapping_tENS_4lessISB_EENS5_ISB_EEEEEENS_19__map_value_compareIS7_SG_NSC_IS7_EELb1EEENS5_ISG_EEE25__emplace_unique_key_argsIS7_JRKNS_21piecewise_construct_tENS_5tupleIJRKS7_EEENSQ_IJEEEEEENS_4pairINS_15__tree_iteratorISG_PNS_11__tree_nodeISG_PvEElEEbEERKT_DpOT0_, symObjAddr: 0xEB14, symBinAddr: 0x10000ECE0, symSize: 0x1F0 }
  - { offsetInCU: 0xE36A6, offset: 0x23C2E8, size: 0x8, addend: 0x0, symName: __ZNSt3__16__treeIPN2vg9mapping_tENS_4lessIS3_EENS_9allocatorIS3_EEE14__assign_multiINS_21__tree_const_iteratorIS3_PNS_11__tree_nodeIS3_PvEElEEEEvT_SG_, symObjAddr: 0xED04, symBinAddr: 0x10000EED0, symSize: 0x328 }
  - { offsetInCU: 0xE3C9C, offset: 0x23C8DE, size: 0x8, addend: 0x0, symName: __ZNSt3__16__treeINS_12__value_typeINS_12basic_stringIcNS_11char_traitsIcEENS_9allocatorIcEEEENS_3setIPN2vg9mapping_tENS_4lessISB_EENS5_ISB_EEEEEENS_19__map_value_compareIS7_SG_NSC_IS7_EELb1EEENS5_ISG_EEE7destroyEPNS_11__tree_nodeISG_PvEE, symObjAddr: 0xF02C, symBinAddr: 0x10000F1F8, symSize: 0x6C }
  - { offsetInCU: 0xE468A, offset: 0x23D2CC, size: 0x8, addend: 0x0, symName: __ZN2vg5Paths29get_node_mapping_by_path_nameEPNS_4NodeE, symObjAddr: 0xF098, symBinAddr: 0x10000F264, symSize: 0x8 }
  - { offsetInCU: 0xE46C4, offset: 0x23D306, size: 0x8, addend: 0x0, symName: __ZN2vg5Paths29get_node_mapping_by_path_nameEPNS_4NodeE, symObjAddr: 0xF098, symBinAddr: 0x10000F264, symSize: 0x8 }
  - { offsetInCU: 0xE46E0, offset: 0x23D322, size: 0x8, addend: 0x0, symName: __ZN2vg5Paths29get_node_mapping_by_path_nameEPNS_4NodeE, symObjAddr: 0xF098, symBinAddr: 0x10000F264, symSize: 0x8 }
  - { offsetInCU: 0xE4735, offset: 0x23D377, size: 0x8, addend: 0x0, symName: __ZN3spp15sparse_hash_mapIPKN2vg9mapping_tENSt3__14pairINS5_15__list_iteratorIS2_PvEExEENS1_9wang_hashIS4_vEENS5_8equal_toIS4_EENS_14libc_allocatorINS6_IKS4_SA_EEEEE2atERSG_, symObjAddr: 0xFEB8, symBinAddr: 0x10000F26C, symSize: 0x154 }
  - { offsetInCU: 0xE59AD, offset: 0x23E5EF, size: 0x8, addend: 0x0, symName: _OUTLINED_FUNCTION_0, symObjAddr: 0x20000, symBinAddr: 0x10000FA54, symSize: 0x8 }
  - { offsetInCU: 0xE59C5, offset: 0x23E607, size: 0x8, addend: 0x0, symName: _OUTLINED_FUNCTION_1, symObjAddr: 0x20008, symBinAddr: 0x10000FA5C, symSize: 0xC }
  - { offsetInCU: 0xE59DD, offset: 0x23E61F, size: 0x8, addend: 0x0, symName: _OUTLINED_FUNCTION_2, symObjAddr: 0x20014, symBinAddr: 0x10000FA68, symSize: 0xC }
  - { offsetInCU: 0xE59F5, offset: 0x23E637, size: 0x8, addend: 0x0, symName: _OUTLINED_FUNCTION_3, symObjAddr: 0x20020, symBinAddr: 0x10000FA74, symSize: 0x14 }
  - { offsetInCU: 0xE5A0D, offset: 0x23E64F, size: 0x8, addend: 0x0, symName: _OUTLINED_FUNCTION_4, symObjAddr: 0x20034, symBinAddr: 0x10000FA88, symSize: 0xC }
  - { offsetInCU: 0xE5A25, offset: 0x23E667, size: 0x8, addend: 0x0, symName: _OUTLINED_FUNCTION_5, symObjAddr: 0x20040, symBinAddr: 0x10000FA94, symSize: 0xC }
  - { offsetInCU: 0xE5A3D, offset: 0x23E67F, size: 0x8, addend: 0x0, symName: _OUTLINED_FUNCTION_6, symObjAddr: 0x2004C, symBinAddr: 0x10000FAA0, symSize: 0x8 }
  - { offsetInCU: 0xE5A55, offset: 0x23E697, size: 0x8, addend: 0x0, symName: _OUTLINED_FUNCTION_7, symObjAddr: 0x20054, symBinAddr: 0x10000FAA8, symSize: 0x8 }
  - { offsetInCU: 0xE5A6D, offset: 0x23E6AF, size: 0x8, addend: 0x0, symName: _OUTLINED_FUNCTION_8, symObjAddr: 0x2005C, symBinAddr: 0x10000FAB0, symSize: 0x8 }
  - { offsetInCU: 0xE5A85, offset: 0x23E6C7, size: 0x8, addend: 0x0, symName: _OUTLINED_FUNCTION_11, symObjAddr: 0x2007C, symBinAddr: 0x10000FAB8, symSize: 0x8 }
  - { offsetInCU: 0xE5A9D, offset: 0x23E6DF, size: 0x8, addend: 0x0, symName: _OUTLINED_FUNCTION_12, symObjAddr: 0x20084, symBinAddr: 0x10000FAC0, symSize: 0x8 }
  - { offsetInCU: 0xE5AB5, offset: 0x23E6F7, size: 0x8, addend: 0x0, symName: _OUTLINED_FUNCTION_13, symObjAddr: 0x2008C, symBinAddr: 0x10000FAC8, symSize: 0x8 }
  - { offsetInCU: 0xE5ACD, offset: 0x23E70F, size: 0x8, addend: 0x0, symName: _OUTLINED_FUNCTION_14, symObjAddr: 0x20094, symBinAddr: 0x10000FAD0, symSize: 0x8 }
  - { offsetInCU: 0xE5AE5, offset: 0x23E727, size: 0x8, addend: 0x0, symName: _OUTLINED_FUNCTION_15, symObjAddr: 0x2009C, symBinAddr: 0x10000FAD8, symSize: 0x8 }
  - { offsetInCU: 0xE5AFD, offset: 0x23E73F, size: 0x8, addend: 0x0, symName: _OUTLINED_FUNCTION_16, symObjAddr: 0x200A4, symBinAddr: 0x10000FAE0, symSize: 0x8 }
  - { offsetInCU: 0xE5B15, offset: 0x23E757, size: 0x8, addend: 0x0, symName: _OUTLINED_FUNCTION_17, symObjAddr: 0x200AC, symBinAddr: 0x10000FAE8, symSize: 0x8 }
  - { offsetInCU: 0xE5B2D, offset: 0x23E76F, size: 0x8, addend: 0x0, symName: _OUTLINED_FUNCTION_18, symObjAddr: 0x200B4, symBinAddr: 0x10000FAF0, symSize: 0x8 }
  - { offsetInCU: 0xE5B45, offset: 0x23E787, size: 0x8, addend: 0x0, symName: _OUTLINED_FUNCTION_19, symObjAddr: 0x200BC, symBinAddr: 0x10000FAF8, symSize: 0x8 }
  - { offsetInCU: 0x30, offset: 0x23F3F6, size: 0x8, addend: 0x0, symName: __ZL11init_ram_fs, symObjAddr: 0x10E458, symBinAddr: 0x100044FD9, symSize: 0x0 }
  - { offsetInCU: 0x4D4A, offset: 0x246DAA, size: 0x8, addend: 0x0, symName: __ZN2vg11Progressive15create_progressERKNSt3__112basic_stringIcNS1_11char_traitsIcEENS1_9allocatorIcEEEEl, symObjAddr: 0x0, symBinAddr: 0x10000FBA4, symSize: 0x44 }
  - { offsetInCU: 0x4DAE, offset: 0x246E0E, size: 0x8, addend: 0x0, symName: __ZN2vg11Progressive15create_progressEl, symObjAddr: 0x44, symBinAddr: 0x10000FBE8, symSize: 0xB4 }
  - { offsetInCU: 0x4ECE, offset: 0x246F2E, size: 0x8, addend: 0x0, symName: __ZN2vg11Progressive15update_progressEl, symObjAddr: 0x114, symBinAddr: 0x10000FC9C, symSize: 0x118 }
  - { offsetInCU: 0x4FAB, offset: 0x24700B, size: 0x8, addend: 0x0, symName: __ZN2vg11Progressive16destroy_progressEv, symObjAddr: 0x2E8, symBinAddr: 0x10000FDB4, symSize: 0xE4 }
  - { offsetInCU: 0x30, offset: 0x247143, size: 0x8, addend: 0x0, symName: __ZL11init_ram_fs, symObjAddr: 0x1157DB, symBinAddr: 0x100044FDA, symSize: 0x0 }
  - { offsetInCU: 0x30, offset: 0x249F49, size: 0x8, addend: 0x0, symName: __MergedGlobals, symObjAddr: 0x4AB208, symBinAddr: 0x100044FE0, symSize: 0x0 }
  - { offsetInCU: 0x61, offset: 0x249F7A, size: 0x8, addend: 0x0, symName: __MergedGlobals, symObjAddr: 0x4AB208, symBinAddr: 0x100044FE0, symSize: 0x0 }
  - { offsetInCU: 0x30, offset: 0x24F867, size: 0x8, addend: 0x0, symName: __ZL11init_ram_fs, symObjAddr: 0x10BCE6, symBinAddr: 0x100045000, symSize: 0x0 }
  - { offsetInCU: 0x63C0, offset: 0x2588AF, size: 0x8, addend: 0x0, symName: __ZN11handlegraph15PathHandleGraphD1Ev, symObjAddr: 0x674, symBinAddr: 0x100029F90, symSize: 0x4 }
  - { offsetInCU: 0x63E0, offset: 0x2588CF, size: 0x8, addend: 0x0, symName: __ZN11handlegraph15PathHandleGraphD0Ev, symObjAddr: 0x678, symBinAddr: 0x100029F94, symSize: 0x4 }
  - { offsetInCU: 0x641F, offset: 0x25890E, size: 0x8, addend: 0x0, symName: __ZTv0_n24_N11handlegraph15PathHandleGraphD1Ev, symObjAddr: 0x67C, symBinAddr: 0x100029F98, symSize: 0x4 }
  - { offsetInCU: 0x6439, offset: 0x258928, size: 0x8, addend: 0x0, symName: __ZTv0_n24_N11handlegraph15PathHandleGraphD1Ev, symObjAddr: 0x67C, symBinAddr: 0x100029F98, symSize: 0x4 }
  - { offsetInCU: 0x6464, offset: 0x258953, size: 0x8, addend: 0x0, symName: __ZTv0_n24_N11handlegraph15PathHandleGraphD0Ev, symObjAddr: 0x680, symBinAddr: 0x100029F9C, symSize: 0x4 }
  - { offsetInCU: 0x647E, offset: 0x25896D, size: 0x8, addend: 0x0, symName: __ZTv0_n24_N11handlegraph15PathHandleGraphD0Ev, symObjAddr: 0x680, symBinAddr: 0x100029F9C, symSize: 0x4 }
  - { offsetInCU: 0x66A4, offset: 0x258B93, size: 0x8, addend: 0x0, symName: __ZNSt3__113unordered_setIN11handlegraph13path_handle_tENS_4hashIS2_EENS_8equal_toIS2_EENS_9allocatorIS2_EEED1B8ue170006Ev, symObjAddr: 0x1718, symBinAddr: 0x10000FF74, symSize: 0x48 }
  - { offsetInCU: 0x69B9, offset: 0x258EA8, size: 0x8, addend: 0x0, symName: __ZNSt3__112__hash_tableIN11handlegraph13path_handle_tENS_4hashIS2_EENS_8equal_toIS2_EENS_9allocatorIS2_EEE11__do_rehashILb1EEEvm, symObjAddr: 0x1C88, symBinAddr: 0x10000FFBC, symSize: 0x1AC }
  - { offsetInCU: 0x37, offset: 0x2593CC, size: 0x8, addend: 0x0, symName: __MergedGlobals, symObjAddr: 0x206068, symBinAddr: 0x100045008, symSize: 0x0 }
  - { offsetInCU: 0x55, offset: 0x2593EA, size: 0x8, addend: 0x0, symName: __ZN2vgL10complementE, symObjAddr: 0x12C72, symBinAddr: 0x10002CE2F, symSize: 0x0 }
  - { offsetInCU: 0x74, offset: 0x259409, size: 0x8, addend: 0x0, symName: __MergedGlobals, symObjAddr: 0x206068, symBinAddr: 0x100045008, symSize: 0x0 }
  - { offsetInCU: 0x91, offset: 0x259426, size: 0x8, addend: 0x0, symName: __MergedGlobals, symObjAddr: 0x206068, symBinAddr: 0x100045008, symSize: 0x0 }
  - { offsetInCU: 0xAE, offset: 0x259443, size: 0x8, addend: 0x0, symName: __MergedGlobals, symObjAddr: 0x206068, symBinAddr: 0x100045008, symSize: 0x0 }
  - { offsetInCU: 0x13D, offset: 0x2594D2, size: 0x8, addend: 0x0, symName: __ZN2vg19random_sequence_genE, symObjAddr: 0x206064, symBinAddr: 0x1000452A0, symSize: 0x0 }
  - { offsetInCU: 0x15B, offset: 0x2594F0, size: 0x8, addend: 0x0, symName: __ZN2vg18reverse_complementERKc, symObjAddr: 0x0, symBinAddr: 0x100010168, symSize: 0x14 }
  - { offsetInCU: 0x18A, offset: 0x25951F, size: 0x8, addend: 0x0, symName: __ZN2vg18reverse_complementERKNSt3__112basic_stringIcNS0_11char_traitsIcEENS0_9allocatorIcEEEE, symObjAddr: 0x14, symBinAddr: 0x10001017C, symSize: 0x108 }
  - { offsetInCU: 0x8951, offset: 0x261CE6, size: 0x8, addend: 0x0, symName: __ZNSt3__112basic_stringIcNS_11char_traitsIcEENS_9allocatorIcEEE22__assign_with_sentinelB8ue170006INS_16reverse_iteratorINS_11__wrap_iterIPKcEEEESC_EEvT_T0_, symObjAddr: 0x128, symBinAddr: 0x100010284, symSize: 0xE8 }
  - { offsetInCU: 0x9123, offset: 0x2624B8, size: 0x8, addend: 0x0, symName: __ZN2vg9temp_file7HandlerD1Ev, symObjAddr: 0x2380, symBinAddr: 0x10001036C, symSize: 0x4 }
  - { offsetInCU: 0x914E, offset: 0x2624E3, size: 0x8, addend: 0x0, symName: __ZN2vg9temp_file7HandlerD2Ev, symObjAddr: 0x2384, symBinAddr: 0x100010370, symSize: 0x138 }
  - { offsetInCU: 0x9162, offset: 0x2624F7, size: 0x8, addend: 0x0, symName: __ZN2vg9temp_file7HandlerD2Ev, symObjAddr: 0x2384, symBinAddr: 0x100010370, symSize: 0x138 }
  - { offsetInCU: 0x9F69, offset: 0x2632FE, size: 0x8, addend: 0x0, symName: __ZN2vg9temp_file7Handler16remove_directoryERKNSt3__112basic_stringIcNS2_11char_traitsIcEENS2_9allocatorIcEEEE, symObjAddr: 0x24BC, symBinAddr: 0x1000104A8, symSize: 0x224 }
  - { offsetInCU: 0x37, offset: 0x2642A1, size: 0x8, addend: 0x0, symName: __MergedGlobals, symObjAddr: 0xE343D0, symBinAddr: 0x100045110, symSize: 0x0 }
  - { offsetInCU: 0x2CB2, offset: 0x266F1C, size: 0x8, addend: 0x0, symName: __MergedGlobals, symObjAddr: 0xE343D0, symBinAddr: 0x100045110, symSize: 0x0 }
  - { offsetInCU: 0x12382F, offset: 0x387A99, size: 0x8, addend: 0x0, symName: __ZN2vg2io8for_eachINS_5GraphEEEvRNSt3__113basic_istreamIcNS3_11char_traitsIcEEEERKNS3_8functionIFvxRT_EEE, symObjAddr: 0x6FD8, symBinAddr: 0x1000167D8, symSize: 0x114 }
  - { offsetInCU: 0x12D2F7, offset: 0x391561, size: 0x8, addend: 0x0, symName: __ZN6google8protobuf8internal4NewTIN2vg4NodeEEEPvPNS0_5ArenaE, symObjAddr: 0x9B14, symBinAddr: 0x1000176E8, symSize: 0x64 }
  - { offsetInCU: 0x12D41B, offset: 0x391685, size: 0x8, addend: 0x0, symName: __ZN6google8protobuf8internal4NewTIN2vg4EdgeEEEPvPNS0_5ArenaE, symObjAddr: 0x9E08, symBinAddr: 0x100017940, symSize: 0x64 }
  - { offsetInCU: 0x14AB43, offset: 0x3AEDAD, size: 0x8, addend: 0x0, symName: __ZN2vg2VG12from_istreamERNSt3__113basic_istreamIcNS1_11char_traitsIcEEEEbb, symObjAddr: 0x5A34, symBinAddr: 0x100015C30, symSize: 0x334 }
  - { offsetInCU: 0x14D07B, offset: 0x3B12E5, size: 0x8, addend: 0x0, symName: __ZNK2vg2VG9serializeERNSt3__113basic_ostreamIcNS1_11char_traitsIcEEEE, symObjAddr: 0x3660, symBinAddr: 0x100013D90, symSize: 0x204 }
  - { offsetInCU: 0x14DC25, offset: 0x3B1E8F, size: 0x8, addend: 0x0, symName: __ZNK2vg2VG25for_each_path_handle_implERKNSt3__18functionIFbRKN11handlegraph13path_handle_tEEEE, symObjAddr: 0x22BC, symBinAddr: 0x1000129EC, symSize: 0xDC }
  - { offsetInCU: 0x14E146, offset: 0x3B23B0, size: 0x8, addend: 0x0, symName: __ZN2vg2VG14destroy_handleERKN11handlegraph8handle_tE, symObjAddr: 0x3B24, symBinAddr: 0x100014254, symSize: 0x19C }
  - { offsetInCU: 0x14EB8B, offset: 0x3B2DF5, size: 0x8, addend: 0x0, symName: __ZN2vg2VG17apply_orientationERKN11handlegraph8handle_tE, symObjAddr: 0x4088, symBinAddr: 0x1000147B8, symSize: 0x430 }
  - { offsetInCU: 0x159A8A, offset: 0x3BDCF4, size: 0x8, addend: 0x0, symName: __ZN2vg2VG17reassign_node_idsERKNSt3__18functionIFxRKxEEE, symObjAddr: 0x4EE0, symBinAddr: 0x100015610, symSize: 0x254 }
  - { offsetInCU: 0x15A4C9, offset: 0x3BE733, size: 0x8, addend: 0x0, symName: __ZN2vg2VG11compact_idsERNS_8hash_mapIxxEE, symObjAddr: 0x2B4A4, symBinAddr: 0x100022778, symSize: 0x1B8 }
  - { offsetInCU: 0x15AE28, offset: 0x3BF092, size: 0x8, addend: 0x0, symName: __ZN2vg2VG18increment_node_idsEx, symObjAddr: 0x4CD8, symBinAddr: 0x100015408, symSize: 0x208 }
  - { offsetInCU: 0x15BA11, offset: 0x3BFC7B, size: 0x8, addend: 0x0, symName: __ZN2vg2VG14apply_orderingERKNSt3__16vectorIN11handlegraph8handle_tENS1_9allocatorIS4_EEEEb, symObjAddr: 0x4B7C, symBinAddr: 0x1000152AC, symSize: 0x158 }
  - { offsetInCU: 0x181E79, offset: 0x3E60E3, size: 0x8, addend: 0x0, symName: __ZN11handlegraph31MutablePathDeletableHandleGraphD1Ev, symObjAddr: 0x0, symBinAddr: 0x100029FA0, symSize: 0x4 }
  - { offsetInCU: 0x181E99, offset: 0x3E6103, size: 0x8, addend: 0x0, symName: __ZN11handlegraph31MutablePathDeletableHandleGraphD0Ev, symObjAddr: 0x4, symBinAddr: 0x100029FA4, symSize: 0x4 }
  - { offsetInCU: 0x181ED8, offset: 0x3E6142, size: 0x8, addend: 0x0, symName: __ZTv0_n24_N11handlegraph31MutablePathDeletableHandleGraphD1Ev, symObjAddr: 0x8, symBinAddr: 0x100029FA8, symSize: 0x4 }
  - { offsetInCU: 0x181EF2, offset: 0x3E615C, size: 0x8, addend: 0x0, symName: __ZTv0_n24_N11handlegraph31MutablePathDeletableHandleGraphD1Ev, symObjAddr: 0x8, symBinAddr: 0x100029FA8, symSize: 0x4 }
  - { offsetInCU: 0x181F1D, offset: 0x3E6187, size: 0x8, addend: 0x0, symName: __ZTv0_n24_N11handlegraph31MutablePathDeletableHandleGraphD0Ev, symObjAddr: 0xC, symBinAddr: 0x100029FAC, symSize: 0x4 }
  - { offsetInCU: 0x181F37, offset: 0x3E61A1, size: 0x8, addend: 0x0, symName: __ZTv0_n24_N11handlegraph31MutablePathDeletableHandleGraphD0Ev, symObjAddr: 0xC, symBinAddr: 0x100029FAC, symSize: 0x4 }
  - { offsetInCU: 0x181F48, offset: 0x3E61B2, size: 0x8, addend: 0x0, symName: __ZN11handlegraph29MutablePathMutableHandleGraphD1Ev, symObjAddr: 0x10, symBinAddr: 0x100029FB0, symSize: 0x4 }
  - { offsetInCU: 0x181F68, offset: 0x3E61D2, size: 0x8, addend: 0x0, symName: __ZN11handlegraph29MutablePathMutableHandleGraphD0Ev, symObjAddr: 0x14, symBinAddr: 0x100029FB4, symSize: 0x4 }
  - { offsetInCU: 0x181FA7, offset: 0x3E6211, size: 0x8, addend: 0x0, symName: __ZTv0_n24_N11handlegraph29MutablePathMutableHandleGraphD1Ev, symObjAddr: 0x18, symBinAddr: 0x100029FB8, symSize: 0x4 }
  - { offsetInCU: 0x181FC1, offset: 0x3E622B, size: 0x8, addend: 0x0, symName: __ZTv0_n24_N11handlegraph29MutablePathMutableHandleGraphD1Ev, symObjAddr: 0x18, symBinAddr: 0x100029FB8, symSize: 0x4 }
  - { offsetInCU: 0x181FEC, offset: 0x3E6256, size: 0x8, addend: 0x0, symName: __ZTv0_n24_N11handlegraph29MutablePathMutableHandleGraphD0Ev, symObjAddr: 0x1C, symBinAddr: 0x100029FBC, symSize: 0x4 }
  - { offsetInCU: 0x182006, offset: 0x3E6270, size: 0x8, addend: 0x0, symName: __ZTv0_n24_N11handlegraph29MutablePathMutableHandleGraphD0Ev, symObjAddr: 0x1C, symBinAddr: 0x100029FBC, symSize: 0x4 }
  - { offsetInCU: 0x182017, offset: 0x3E6281, size: 0x8, addend: 0x0, symName: __ZN11handlegraph22MutablePathHandleGraphD1Ev, symObjAddr: 0x20, symBinAddr: 0x100029FC0, symSize: 0x4 }
  - { offsetInCU: 0x182037, offset: 0x3E62A1, size: 0x8, addend: 0x0, symName: __ZN11handlegraph22MutablePathHandleGraphD0Ev, symObjAddr: 0x24, symBinAddr: 0x100029FC4, symSize: 0x4 }
  - { offsetInCU: 0x182076, offset: 0x3E62E0, size: 0x8, addend: 0x0, symName: __ZTv0_n24_N11handlegraph22MutablePathHandleGraphD1Ev, symObjAddr: 0x28, symBinAddr: 0x100029FC8, symSize: 0x4 }
  - { offsetInCU: 0x182090, offset: 0x3E62FA, size: 0x8, addend: 0x0, symName: __ZTv0_n24_N11handlegraph22MutablePathHandleGraphD1Ev, symObjAddr: 0x28, symBinAddr: 0x100029FC8, symSize: 0x4 }
  - { offsetInCU: 0x1820BB, offset: 0x3E6325, size: 0x8, addend: 0x0, symName: __ZTv0_n24_N11handlegraph22MutablePathHandleGraphD0Ev, symObjAddr: 0x2C, symBinAddr: 0x100029FCC, symSize: 0x4 }
  - { offsetInCU: 0x1820D5, offset: 0x3E633F, size: 0x8, addend: 0x0, symName: __ZTv0_n24_N11handlegraph22MutablePathHandleGraphD0Ev, symObjAddr: 0x2C, symBinAddr: 0x100029FCC, symSize: 0x4 }
  - { offsetInCU: 0x1820E6, offset: 0x3E6350, size: 0x8, addend: 0x0, symName: __ZN11handlegraph19MutablePathMetadataD1Ev, symObjAddr: 0x40, symBinAddr: 0x100029FD0, symSize: 0x4 }
  - { offsetInCU: 0x18210F, offset: 0x3E6379, size: 0x8, addend: 0x0, symName: __ZN11handlegraph19MutablePathMetadataD0Ev, symObjAddr: 0x44, symBinAddr: 0x100029FD4, symSize: 0x4 }
  - { offsetInCU: 0x182138, offset: 0x3E63A2, size: 0x8, addend: 0x0, symName: __ZN11handlegraph18MutableHandleGraphD1Ev, symObjAddr: 0x48, symBinAddr: 0x100029FD8, symSize: 0x4 }
  - { offsetInCU: 0x182158, offset: 0x3E63C2, size: 0x8, addend: 0x0, symName: __ZN11handlegraph18MutableHandleGraphD0Ev, symObjAddr: 0x4C, symBinAddr: 0x100029FDC, symSize: 0x4 }
  - { offsetInCU: 0x182197, offset: 0x3E6401, size: 0x8, addend: 0x0, symName: __ZTv0_n24_N11handlegraph18MutableHandleGraphD1Ev, symObjAddr: 0x50, symBinAddr: 0x100029FE0, symSize: 0x4 }
  - { offsetInCU: 0x1821B1, offset: 0x3E641B, size: 0x8, addend: 0x0, symName: __ZTv0_n24_N11handlegraph18MutableHandleGraphD1Ev, symObjAddr: 0x50, symBinAddr: 0x100029FE0, symSize: 0x4 }
  - { offsetInCU: 0x1821DC, offset: 0x3E6446, size: 0x8, addend: 0x0, symName: __ZTv0_n24_N11handlegraph18MutableHandleGraphD0Ev, symObjAddr: 0x54, symBinAddr: 0x100029FE4, symSize: 0x4 }
  - { offsetInCU: 0x1821F6, offset: 0x3E6460, size: 0x8, addend: 0x0, symName: __ZTv0_n24_N11handlegraph18MutableHandleGraphD0Ev, symObjAddr: 0x54, symBinAddr: 0x100029FE4, symSize: 0x4 }
  - { offsetInCU: 0x182207, offset: 0x3E6471, size: 0x8, addend: 0x0, symName: __ZN11handlegraph20DeletableHandleGraphD1Ev, symObjAddr: 0x58, symBinAddr: 0x100029FE8, symSize: 0x4 }
  - { offsetInCU: 0x182227, offset: 0x3E6491, size: 0x8, addend: 0x0, symName: __ZN11handlegraph20DeletableHandleGraphD0Ev, symObjAddr: 0x5C, symBinAddr: 0x100029FEC, symSize: 0x4 }
  - { offsetInCU: 0x182266, offset: 0x3E64D0, size: 0x8, addend: 0x0, symName: __ZTv0_n24_N11handlegraph20DeletableHandleGraphD1Ev, symObjAddr: 0x60, symBinAddr: 0x100029FF0, symSize: 0x4 }
  - { offsetInCU: 0x182280, offset: 0x3E64EA, size: 0x8, addend: 0x0, symName: __ZTv0_n24_N11handlegraph20DeletableHandleGraphD1Ev, symObjAddr: 0x60, symBinAddr: 0x100029FF0, symSize: 0x4 }
  - { offsetInCU: 0x1822AB, offset: 0x3E6515, size: 0x8, addend: 0x0, symName: __ZTv0_n24_N11handlegraph20DeletableHandleGraphD0Ev, symObjAddr: 0x64, symBinAddr: 0x100029FF4, symSize: 0x4 }
  - { offsetInCU: 0x1822C5, offset: 0x3E652F, size: 0x8, addend: 0x0, symName: __ZTv0_n24_N11handlegraph20DeletableHandleGraphD0Ev, symObjAddr: 0x64, symBinAddr: 0x100029FF4, symSize: 0x4 }
  - { offsetInCU: 0x1822D6, offset: 0x3E6540, size: 0x8, addend: 0x0, symName: __ZN2vg2VGD1Ev, symObjAddr: 0x68, symBinAddr: 0x100010798, symSize: 0xC }
  - { offsetInCU: 0x1822F9, offset: 0x3E6563, size: 0x8, addend: 0x0, symName: __ZN2vg2VGD0Ev, symObjAddr: 0x74, symBinAddr: 0x1000107A4, symSize: 0x1C }
  - { offsetInCU: 0x18230C, offset: 0x3E6576, size: 0x8, addend: 0x0, symName: __ZN2vg2VGD2Ev, symObjAddr: 0x1517C, symBinAddr: 0x10001AFAC, symSize: 0x3B8 }
  - { offsetInCU: 0x183687, offset: 0x3E78F1, size: 0x8, addend: 0x0, symName: __ZN2vg2VGD0Ev, symObjAddr: 0x74, symBinAddr: 0x1000107A4, symSize: 0x1C }
  - { offsetInCU: 0x183839, offset: 0x3E7AA3, size: 0x8, addend: 0x0, symName: __ZNK2vg2VG8has_nodeEx, symObjAddr: 0x90, symBinAddr: 0x1000107C0, symSize: 0xF0 }
  - { offsetInCU: 0x183996, offset: 0x3E7C00, size: 0x8, addend: 0x0, symName: __ZNK3spp16sparse_hashtableINSt3__14pairIKxPN2vg4NodeEEExNS4_9wang_hashIxvEENS_15sparse_hash_mapIxS6_S9_NS1_8equal_toIxEENS_14libc_allocatorIS7_EEE9SelectKeyENSF_6SetKeyESC_SE_E4findERS3_, symObjAddr: 0xA6E4, symBinAddr: 0x1000180E4, symSize: 0x1EC }
  - { offsetInCU: 0x183E3A, offset: 0x3E80A4, size: 0x8, addend: 0x0, symName: __ZNK2vg2VG10get_handleERKxb, symObjAddr: 0x180, symBinAddr: 0x1000108B0, symSize: 0x24 }
  - { offsetInCU: 0x183E7B, offset: 0x3E80E5, size: 0x8, addend: 0x0, symName: __ZNK2vg2VG6get_idERKN11handlegraph8handle_tE, symObjAddr: 0x1A4, symBinAddr: 0x1000108D4, symSize: 0xC }
  - { offsetInCU: 0x183E86, offset: 0x3E80F0, size: 0x8, addend: 0x0, symName: __ZNK2vg2VG10get_handleERKxb.cold.1, symObjAddr: 0x5CCD4, symBinAddr: 0x100029FF8, symSize: 0x28 }
  - { offsetInCU: 0x183EC8, offset: 0x3E8132, size: 0x8, addend: 0x0, symName: __ZNK2vg2VG6get_idERKN11handlegraph8handle_tE, symObjAddr: 0x1A4, symBinAddr: 0x1000108D4, symSize: 0xC }
  - { offsetInCU: 0x183EF1, offset: 0x3E815B, size: 0x8, addend: 0x0, symName: __ZNK2vg2VG6get_idERKN11handlegraph8handle_tE, symObjAddr: 0x1A4, symBinAddr: 0x1000108D4, symSize: 0xC }
  - { offsetInCU: 0x183F1E, offset: 0x3E8188, size: 0x8, addend: 0x0, symName: __ZNK2vg2VG14get_is_reverseERKN11handlegraph8handle_tE, symObjAddr: 0x1B0, symBinAddr: 0x1000108E0, symSize: 0xC }
  - { offsetInCU: 0x183F47, offset: 0x3E81B1, size: 0x8, addend: 0x0, symName: __ZNK2vg2VG14get_is_reverseERKN11handlegraph8handle_tE, symObjAddr: 0x1B0, symBinAddr: 0x1000108E0, symSize: 0xC }
  - { offsetInCU: 0x183F74, offset: 0x3E81DE, size: 0x8, addend: 0x0, symName: __ZNK2vg2VG4flipERKN11handlegraph8handle_tE, symObjAddr: 0x1BC, symBinAddr: 0x1000108EC, symSize: 0xC }
  - { offsetInCU: 0x183F9D, offset: 0x3E8207, size: 0x8, addend: 0x0, symName: __ZNK2vg2VG4flipERKN11handlegraph8handle_tE, symObjAddr: 0x1BC, symBinAddr: 0x1000108EC, symSize: 0xC }
  - { offsetInCU: 0x18419A, offset: 0x3E8404, size: 0x8, addend: 0x0, symName: __ZNK2vg2VG10get_lengthERKN11handlegraph8handle_tE, symObjAddr: 0x1C8, symBinAddr: 0x1000108F8, symSize: 0x268 }
  - { offsetInCU: 0x184A8A, offset: 0x3E8CF4, size: 0x8, addend: 0x0, symName: __ZNK2vg2VG12get_sequenceERKN11handlegraph8handle_tE, symObjAddr: 0x430, symBinAddr: 0x100010B60, symSize: 0x34C }
  - { offsetInCU: 0x185848, offset: 0x3E9AB2, size: 0x8, addend: 0x0, symName: __ZNK2vg2VG14get_node_countEv, symObjAddr: 0x77C, symBinAddr: 0x100010EAC, symSize: 0x8 }
  - { offsetInCU: 0x18586D, offset: 0x3E9AD7, size: 0x8, addend: 0x0, symName: __ZNK2vg2VG14get_node_countEv, symObjAddr: 0x77C, symBinAddr: 0x100010EAC, symSize: 0x8 }
  - { offsetInCU: 0x18588C, offset: 0x3E9AF6, size: 0x8, addend: 0x0, symName: __ZNK2vg2VG14get_node_countEv, symObjAddr: 0x77C, symBinAddr: 0x100010EAC, symSize: 0x8 }
  - { offsetInCU: 0x1858AB, offset: 0x3E9B15, size: 0x8, addend: 0x0, symName: __ZNK2vg2VG14get_node_countEv, symObjAddr: 0x77C, symBinAddr: 0x100010EAC, symSize: 0x8 }
  - { offsetInCU: 0x1858CC, offset: 0x3E9B36, size: 0x8, addend: 0x0, symName: __ZNK2vg2VG14get_node_countEv, symObjAddr: 0x77C, symBinAddr: 0x100010EAC, symSize: 0x8 }
  - { offsetInCU: 0x185966, offset: 0x3E9BD0, size: 0x8, addend: 0x0, symName: __ZNK2vg2VG11min_node_idEv, symObjAddr: 0x784, symBinAddr: 0x100010EB4, symSize: 0x80 }
  - { offsetInCU: 0x185AC5, offset: 0x3E9D2F, size: 0x8, addend: 0x0, symName: __ZNK6google8protobuf8internal20RepeatedPtrFieldBase3GetINS0_16RepeatedPtrFieldIN2vg4NodeEE11TypeHandlerEEERKNT_4TypeEi, symObjAddr: 0xAC90, symBinAddr: 0x100018660, symSize: 0x70 }
  - { offsetInCU: 0x185C59, offset: 0x3E9EC3, size: 0x8, addend: 0x0, symName: __ZNK2vg2VG11max_node_idEv, symObjAddr: 0x804, symBinAddr: 0x100010F34, symSize: 0x80 }
  - { offsetInCU: 0x185F2D, offset: 0x3EA197, size: 0x8, addend: 0x0, symName: __ZNK2vg2VG10get_degreeERKN11handlegraph8handle_tEb, symObjAddr: 0x884, symBinAddr: 0x100010FB4, symSize: 0x148 }
  - { offsetInCU: 0x186149, offset: 0x3EA3B3, size: 0x8, addend: 0x0, symName: __ZNK3spp16sparse_hashtableINSt3__14pairIKxNS1_6vectorINS2_IxbEENS1_9allocatorIS5_EEEEEExN2vg9wang_hashIxvEENS_15sparse_hash_mapIxS8_SC_NS1_8equal_toIxEENS_14libc_allocatorIS9_EEE9SelectKeyENSI_6SetKeyESF_SH_E4findERS3_, symObjAddr: 0xA8F0, symBinAddr: 0x1000182D0, symSize: 0x1EC }
  - { offsetInCU: 0x1868CB, offset: 0x3EAB35, size: 0x8, addend: 0x0, symName: __ZNK2vg2VG8has_edgeERKN11handlegraph8handle_tES4_, symObjAddr: 0x9CC, symBinAddr: 0x1000110FC, symSize: 0x1CC }
  - { offsetInCU: 0x186C59, offset: 0x3EAEC3, size: 0x8, addend: 0x0, symName: __ZNK3spp16sparse_hashtableINSt3__14pairIKNS2_IN2vg8NodeSideES4_EEPNS3_4EdgeEEES5_NS3_9wang_hashIS5_vEENS_15sparse_hash_mapIS5_S8_SB_NS1_8equal_toIS5_EENS_14libc_allocatorIS9_EEE9SelectKeyENSH_6SetKeyESE_SG_E4findERS6_, symObjAddr: 0x2871C, symBinAddr: 0x100021F58, symSize: 0x2DC }
  - { offsetInCU: 0x1873B8, offset: 0x3EB622, size: 0x8, addend: 0x0, symName: __ZNK2vg2VG14get_edge_countEv, symObjAddr: 0xB98, symBinAddr: 0x1000112C8, symSize: 0x8 }
  - { offsetInCU: 0x1873DD, offset: 0x3EB647, size: 0x8, addend: 0x0, symName: __ZNK2vg2VG14get_edge_countEv, symObjAddr: 0xB98, symBinAddr: 0x1000112C8, symSize: 0x8 }
  - { offsetInCU: 0x1873FC, offset: 0x3EB666, size: 0x8, addend: 0x0, symName: __ZNK2vg2VG14get_edge_countEv, symObjAddr: 0xB98, symBinAddr: 0x1000112C8, symSize: 0x8 }
  - { offsetInCU: 0x18741B, offset: 0x3EB685, size: 0x8, addend: 0x0, symName: __ZNK2vg2VG14get_edge_countEv, symObjAddr: 0xB98, symBinAddr: 0x1000112C8, symSize: 0x8 }
  - { offsetInCU: 0x18743C, offset: 0x3EB6A6, size: 0x8, addend: 0x0, symName: __ZNK2vg2VG14get_edge_countEv, symObjAddr: 0xB98, symBinAddr: 0x1000112C8, symSize: 0x8 }
  - { offsetInCU: 0x18745E, offset: 0x3EB6C8, size: 0x8, addend: 0x0, symName: __ZNK2vg2VG8get_baseERKN11handlegraph8handle_tEm, symObjAddr: 0xBA0, symBinAddr: 0x1000112D0, symSize: 0x2B4 }
  - { offsetInCU: 0x187CA0, offset: 0x3EBF0A, size: 0x8, addend: 0x0, symName: __ZNK2vg2VG15get_subsequenceERKN11handlegraph8handle_tEmm, symObjAddr: 0xE54, symBinAddr: 0x100011584, symSize: 0x43C }
  - { offsetInCU: 0x188E54, offset: 0x3ED0BE, size: 0x8, addend: 0x0, symName: __ZNK2vg2VG17follow_edges_implERKN11handlegraph8handle_tEbRKNSt3__18functionIFbS4_EEE, symObjAddr: 0x1290, symBinAddr: 0x1000119C0, symSize: 0x1FC }
  - { offsetInCU: 0x189149, offset: 0x3ED3B3, size: 0x8, addend: 0x0, symName: __ZNK2vg2VG20for_each_handle_implERKNSt3__18functionIFbRKN11handlegraph8handle_tEEEEb, symObjAddr: 0x148C, symBinAddr: 0x100011BBC, symSize: 0x114 }
  - { offsetInCU: 0x18919B, offset: 0x3ED405, size: 0x8, addend: 0x0, symName: __ZNK2vg2VG20for_each_handle_implERKNSt3__18functionIFbRKN11handlegraph8handle_tEEEEb, symObjAddr: 0x148C, symBinAddr: 0x100011BBC, symSize: 0x114 }
  - { offsetInCU: 0x189418, offset: 0x3ED682, size: 0x8, addend: 0x0, symName: __ZNK2vg2VG14get_path_countEv, symObjAddr: 0x15A0, symBinAddr: 0x100011CD0, symSize: 0x8 }
  - { offsetInCU: 0x18943D, offset: 0x3ED6A7, size: 0x8, addend: 0x0, symName: __ZNK2vg2VG14get_path_countEv, symObjAddr: 0x15A0, symBinAddr: 0x100011CD0, symSize: 0x8 }
  - { offsetInCU: 0x18945A, offset: 0x3ED6C4, size: 0x8, addend: 0x0, symName: __ZNK2vg2VG8has_pathERKNSt3__112basic_stringIcNS1_11char_traitsIcEENS1_9allocatorIcEEEE, symObjAddr: 0x15A8, symBinAddr: 0x100011CD8, symSize: 0x8 }
  - { offsetInCU: 0x189483, offset: 0x3ED6ED, size: 0x8, addend: 0x0, symName: __ZNK2vg2VG15get_path_handleERKNSt3__112basic_stringIcNS1_11char_traitsIcEENS1_9allocatorIcEEEE, symObjAddr: 0x15B0, symBinAddr: 0x100011CE0, symSize: 0x8 }
  - { offsetInCU: 0x1894AC, offset: 0x3ED716, size: 0x8, addend: 0x0, symName: __ZNK2vg2VG13get_path_nameERKN11handlegraph13path_handle_tE, symObjAddr: 0x15B8, symBinAddr: 0x100011CE8, symSize: 0xAC }
  - { offsetInCU: 0x189869, offset: 0x3EDAD3, size: 0x8, addend: 0x0, symName: __ZNK2vg2VG15get_is_circularERKN11handlegraph13path_handle_tE, symObjAddr: 0x1664, symBinAddr: 0x100011D94, symSize: 0x120 }
  - { offsetInCU: 0x1899DB, offset: 0x3EDC45, size: 0x8, addend: 0x0, symName: __ZNK2vg2VG15get_is_circularERKN11handlegraph13path_handle_tE, symObjAddr: 0x1664, symBinAddr: 0x100011D94, symSize: 0x120 }
  - { offsetInCU: 0x189EE3, offset: 0x3EE14D, size: 0x8, addend: 0x0, symName: __ZNK2vg2VG14get_step_countERKN11handlegraph13path_handle_tE, symObjAddr: 0x1784, symBinAddr: 0x100011EB4, symSize: 0xFC }
  - { offsetInCU: 0x18A1B1, offset: 0x3EE41B, size: 0x8, addend: 0x0, symName: __ZNK2vg2VG18get_handle_of_stepERKN11handlegraph13step_handle_tE, symObjAddr: 0x1880, symBinAddr: 0x100011FB0, symSize: 0x54 }
  - { offsetInCU: 0x18A1F4, offset: 0x3EE45E, size: 0x8, addend: 0x0, symName: __ZNK2vg2VG23get_path_handle_of_stepERKN11handlegraph13step_handle_tE, symObjAddr: 0x18D4, symBinAddr: 0x100012004, symSize: 0x8 }
  - { offsetInCU: 0x18A261, offset: 0x3EE4CB, size: 0x8, addend: 0x0, symName: __ZNK2vg2VG10path_beginERKN11handlegraph13path_handle_tE, symObjAddr: 0x18DC, symBinAddr: 0x10001200C, symSize: 0x120 }
  - { offsetInCU: 0x18A58F, offset: 0x3EE7F9, size: 0x8, addend: 0x0, symName: __ZNK2vg2VG8path_endERKN11handlegraph13path_handle_tE, symObjAddr: 0x19FC, symBinAddr: 0x10001212C, symSize: 0xC }
  - { offsetInCU: 0x18A5D7, offset: 0x3EE841, size: 0x8, addend: 0x0, symName: __ZNK2vg2VG9path_backERKN11handlegraph13path_handle_tE, symObjAddr: 0x1A08, symBinAddr: 0x100012138, symSize: 0x144 }
  - { offsetInCU: 0x18A927, offset: 0x3EEB91, size: 0x8, addend: 0x0, symName: __ZNK2vg2VG14path_front_endERKN11handlegraph13path_handle_tE, symObjAddr: 0x1B4C, symBinAddr: 0x10001227C, symSize: 0xC }
  - { offsetInCU: 0x18A9EB, offset: 0x3EEC55, size: 0x8, addend: 0x0, symName: __ZNK2vg2VG13has_next_stepERKN11handlegraph13step_handle_tE, symObjAddr: 0x1B58, symBinAddr: 0x100012288, symSize: 0x1E0 }
  - { offsetInCU: 0x18ADD5, offset: 0x3EF03F, size: 0x8, addend: 0x0, symName: __ZNK3spp15sparse_hash_mapIPKN2vg9mapping_tENSt3__14pairINS5_15__list_iteratorIS2_PvEExEENS1_9wang_hashIS4_vEENS5_8equal_toIS4_EENS_14libc_allocatorINS6_IKS4_SA_EEEEE2atERSG_, symObjAddr: 0xB414, symBinAddr: 0x100018818, symSize: 0x154 }
  - { offsetInCU: 0x18B012, offset: 0x3EF27C, size: 0x8, addend: 0x0, symName: __ZNK2vg2VG17has_previous_stepERKN11handlegraph13step_handle_tE, symObjAddr: 0x1D38, symBinAddr: 0x100012468, symSize: 0x1DC }
  - { offsetInCU: 0x18B423, offset: 0x3EF68D, size: 0x8, addend: 0x0, symName: __ZNK2vg2VG13get_next_stepERKN11handlegraph13step_handle_tE, symObjAddr: 0x1F14, symBinAddr: 0x100012644, symSize: 0x1DC }
  - { offsetInCU: 0x18B79B, offset: 0x3EFA05, size: 0x8, addend: 0x0, symName: __ZNK2vg2VG17get_previous_stepERKN11handlegraph13step_handle_tE, symObjAddr: 0x20F0, symBinAddr: 0x100012820, symSize: 0x1CC }
  - { offsetInCU: 0x18C30E, offset: 0x3F0578, size: 0x8, addend: 0x0, symName: __ZNK2vg2VG28for_each_step_on_handle_implERKN11handlegraph8handle_tERKNSt3__18functionIFbRKNS1_13step_handle_tEEEE, symObjAddr: 0x2398, symBinAddr: 0x100012AC8, symSize: 0x1D4 }
  - { offsetInCU: 0x18C864, offset: 0x3F0ACE, size: 0x8, addend: 0x0, symName: __ZNSt3__13setIPN2vg9mapping_tENS_4lessIS3_EENS_9allocatorIS3_EEE6insertB8ue170006INS_21__tree_const_iteratorIS3_PNS_11__tree_nodeIS3_PvEElEEEEvT_SG_, symObjAddr: 0xB7A4, symBinAddr: 0x100018B44, symSize: 0x10C }
  - { offsetInCU: 0x18CC02, offset: 0x3F0E6C, size: 0x8, addend: 0x0, symName: __ZN2vg2VG12destroy_pathERKN11handlegraph13path_handle_tE, symObjAddr: 0x256C, symBinAddr: 0x100012C9C, symSize: 0x7C }
  - { offsetInCU: 0x18CE85, offset: 0x3F10EF, size: 0x8, addend: 0x0, symName: __ZN2vg2VG18create_path_handleERKNSt3__112basic_stringIcNS1_11char_traitsIcEENS1_9allocatorIcEEEEb, symObjAddr: 0x25E8, symBinAddr: 0x100012D18, symSize: 0x58 }
  - { offsetInCU: 0x18CEBA, offset: 0x3F1124, size: 0x8, addend: 0x0, symName: __ZN2vg2VG11append_stepERKN11handlegraph13path_handle_tERKNS1_8handle_tE, symObjAddr: 0x2640, symBinAddr: 0x100012D70, symSize: 0x1C4 }
  - { offsetInCU: 0x18CF34, offset: 0x3F119E, size: 0x8, addend: 0x0, symName: __ZN2vg2VG11append_stepERKN11handlegraph13path_handle_tERKNS1_8handle_tE, symObjAddr: 0x2640, symBinAddr: 0x100012D70, symSize: 0x1C4 }
  - { offsetInCU: 0x18D4CA, offset: 0x3F1734, size: 0x8, addend: 0x0, symName: __ZN2vg2VG12prepend_stepERKN11handlegraph13path_handle_tERKNS1_8handle_tE, symObjAddr: 0x2804, symBinAddr: 0x100012F34, symSize: 0x1C4 }
  - { offsetInCU: 0x18F2CB, offset: 0x3F3535, size: 0x8, addend: 0x0, symName: __ZN2vg2VG15rewrite_segmentERKN11handlegraph13step_handle_tES4_RKNSt3__16vectorINS1_8handle_tENS5_9allocatorIS7_EEEE, symObjAddr: 0x29C8, symBinAddr: 0x1000130F8, symSize: 0xBF4 }
  - { offsetInCU: 0x1927B8, offset: 0x3F6A22, size: 0x8, addend: 0x0, symName: __ZNSt3__16__treeINS_12__value_typeINS_12basic_stringIcNS_11char_traitsIcEENS_9allocatorIcEEEEN2vg8hash_mapIiPNS8_9mapping_tEEEEENS_19__map_value_compareIS7_SD_NS_4lessIS7_EELb1EEENS5_ISD_EEE25__emplace_unique_key_argsIS7_JRKNS_21piecewise_construct_tENS_5tupleIJOS7_EEENSO_IJEEEEEENS_4pairINS_15__tree_iteratorISD_PNS_11__tree_nodeISD_PvEElEEbEERKT_DpOT0_, symObjAddr: 0x105E4, symBinAddr: 0x10001AAF0, symSize: 0x1C4 }
  - { offsetInCU: 0x193B6A, offset: 0x3F7DD4, size: 0x8, addend: 0x0, symName: __ZNKSt3__16vectorIPN2vg9mapping_tENS_9allocatorIS3_EEE20__throw_length_errorB8ue170006Ev, symObjAddr: 0xE40C, symBinAddr: 0x10001AADC, symSize: 0x14 }
  - { offsetInCU: 0x193BBA, offset: 0x3F7E24, size: 0x8, addend: 0x0, symName: __ZN2vg2VG15set_circularityERKN11handlegraph13path_handle_tEb, symObjAddr: 0x35BC, symBinAddr: 0x100013CEC, symSize: 0xA4 }
  - { offsetInCU: 0x194183, offset: 0x3F83ED, size: 0x8, addend: 0x0, symName: __ZN2vg2io15ProtobufEmitterINS_5GraphEEC2ERNSt3__113basic_ostreamIcNS4_11char_traitsIcEEEEbm, symObjAddr: 0x94E0, symBinAddr: 0x100017150, symSize: 0x1CC }
  - { offsetInCU: 0x194930, offset: 0x3F8B9A, size: 0x8, addend: 0x0, symName: __ZN2vg2io15ProtobufEmitterINS_5GraphEE10write_copyERKS2_, symObjAddr: 0x939C, symBinAddr: 0x10001700C, symSize: 0x144 }
  - { offsetInCU: 0x194DA4, offset: 0x3F900E, size: 0x8, addend: 0x0, symName: __ZN2vg2io15ProtobufEmitterINS_5GraphEED2Ev, symObjAddr: 0xA538, symBinAddr: 0x100017F90, symSize: 0x154 }
  - { offsetInCU: 0x1953B7, offset: 0x3F9621, size: 0x8, addend: 0x0, symName: __ZN2vg2VG11deserializeERNSt3__113basic_istreamIcNS1_11char_traitsIcEEEE, symObjAddr: 0x3864, symBinAddr: 0x100013F94, symSize: 0xC }
  - { offsetInCU: 0x1953EF, offset: 0x3F9659, size: 0x8, addend: 0x0, symName: __ZN2vg2VG13create_handleERKNSt3__112basic_stringIcNS1_11char_traitsIcEENS1_9allocatorIcEEEE, symObjAddr: 0x3870, symBinAddr: 0x100013FA0, symSize: 0xD8 }
  - { offsetInCU: 0x19544E, offset: 0x3F96B8, size: 0x8, addend: 0x0, symName: __ZN2vg2VG13create_handleERKNSt3__112basic_stringIcNS1_11char_traitsIcEENS1_9allocatorIcEEEE, symObjAddr: 0x3870, symBinAddr: 0x100013FA0, symSize: 0xD8 }
  - { offsetInCU: 0x195597, offset: 0x3F9801, size: 0x8, addend: 0x0, symName: __ZN2vg2VG11create_nodeERKNSt3__112basic_stringIcNS1_11char_traitsIcEENS1_9allocatorIcEEEEx, symObjAddr: 0xBC5C, symBinAddr: 0x100018E48, symSize: 0xA0 }
  - { offsetInCU: 0x195807, offset: 0x3F9A71, size: 0x8, addend: 0x0, symName: __ZN2vg2VG13create_handleERKNSt3__112basic_stringIcNS1_11char_traitsIcEENS1_9allocatorIcEEEERKx, symObjAddr: 0x3948, symBinAddr: 0x100014078, symSize: 0x1DC }
  - { offsetInCU: 0x1963AF, offset: 0x3FA619, size: 0x8, addend: 0x0, symName: __ZN2vg2VG8get_nodeEx, symObjAddr: 0xC370, symBinAddr: 0x100019340, symSize: 0x218 }
  - { offsetInCU: 0x196994, offset: 0x3FABFE, size: 0x8, addend: 0x0, symName: __ZN2vg2VG12destroy_nodeEPNS_4NodeE, symObjAddr: 0x292F0, symBinAddr: 0x100022234, symSize: 0x3E0 }
  - { offsetInCU: 0x197E2A, offset: 0x3FC094, size: 0x8, addend: 0x0, symName: __ZN2vg2VG11create_edgeERKN11handlegraph8handle_tES4_, symObjAddr: 0x3CC0, symBinAddr: 0x1000143F0, symSize: 0xB4 }
  - { offsetInCU: 0x197F90, offset: 0x3FC1FA, size: 0x8, addend: 0x0, symName: __ZN2vg2VG12destroy_edgeERKN11handlegraph8handle_tES4_, symObjAddr: 0x3D74, symBinAddr: 0x1000144A4, symSize: 0x1C4 }
  - { offsetInCU: 0x197FA8, offset: 0x3FC212, size: 0x8, addend: 0x0, symName: __ZN2vg2VG11create_edgeExxbb, symObjAddr: 0x1BF34, symBinAddr: 0x10001E8F4, symSize: 0x204 }
  - { offsetInCU: 0x1986C5, offset: 0x3FC92F, size: 0x8, addend: 0x0, symName: __ZN2vg2VG12destroy_edgeERKN11handlegraph8handle_tES4_, symObjAddr: 0x3D74, symBinAddr: 0x1000144A4, symSize: 0x1C4 }
  - { offsetInCU: 0x198A82, offset: 0x3FCCEC, size: 0x8, addend: 0x0, symName: __ZN3spp16sparse_hashtableINSt3__14pairIKNS2_IN2vg8NodeSideES4_EEPNS3_4EdgeEEES5_NS3_9wang_hashIS5_vEENS_15sparse_hash_mapIS5_S8_SB_NS1_8equal_toIS5_EENS_14libc_allocatorIS9_EEE9SelectKeyENSH_6SetKeyESE_SG_E4findERS6_, symObjAddr: 0x36B58, symBinAddr: 0x100024A48, symSize: 0x2DC }
  - { offsetInCU: 0x199194, offset: 0x3FD3FE, size: 0x8, addend: 0x0, symName: __ZN2vg2VG12destroy_edgeEPNS_4EdgeE, symObjAddr: 0xC6B8, symBinAddr: 0x100019558, symSize: 0x13C }
  - { offsetInCU: 0x199872, offset: 0x3FDADC, size: 0x8, addend: 0x0, symName: __ZN2vg2VG5clearEv, symObjAddr: 0x3F38, symBinAddr: 0x100014668, symSize: 0x88 }
  - { offsetInCU: 0x199B33, offset: 0x3FDD9D, size: 0x8, addend: 0x0, symName: __ZN2vg2VG12swap_handlesERKN11handlegraph8handle_tES4_, symObjAddr: 0x3FC0, symBinAddr: 0x1000146F0, symSize: 0xC8 }
  - { offsetInCU: 0x199C1D, offset: 0x3FDE87, size: 0x8, addend: 0x0, symName: __ZN3spp16sparse_hashtableINSt3__14pairIKPN2vg4NodeEiEES5_NS3_9wang_hashIS5_vEENS_15sparse_hash_mapIS5_iS9_NS1_8equal_toIS5_EENS_14libc_allocatorIS7_EEE9SelectKeyENSF_6SetKeyESC_SE_E5clearEv, symObjAddr: 0x1A590, symBinAddr: 0x10001D040, symSize: 0xD0 }
  - { offsetInCU: 0x199FDB, offset: 0x3FE245, size: 0x8, addend: 0x0, symName: __ZN3spp16sparse_hashtableINSt3__14pairIKxPN2vg4NodeEEExNS4_9wang_hashIxvEENS_15sparse_hash_mapIxS6_S9_NS1_8equal_toIxEENS_14libc_allocatorIS7_EEE9SelectKeyENSF_6SetKeyESC_SE_E5clearEv, symObjAddr: 0x1942C, symBinAddr: 0x10001BEDC, symSize: 0xD0 }
  - { offsetInCU: 0x19A399, offset: 0x3FE603, size: 0x8, addend: 0x0, symName: __ZN3spp16sparse_hashtableINSt3__14pairIKNS2_IN2vg8NodeSideES4_EEPNS3_4EdgeEEES5_NS3_9wang_hashIS5_vEENS_15sparse_hash_mapIS5_S8_SB_NS1_8equal_toIS5_EENS_14libc_allocatorIS9_EEE9SelectKeyENSH_6SetKeyESE_SG_E5clearEv, symObjAddr: 0x1EF7C, symBinAddr: 0x100020D80, symSize: 0xD0 }
  - { offsetInCU: 0x19A757, offset: 0x3FE9C1, size: 0x8, addend: 0x0, symName: __ZN3spp16sparse_hashtableINSt3__14pairIKPN2vg4EdgeEiEES5_NS3_9wang_hashIS5_vEENS_15sparse_hash_mapIS5_iS9_NS1_8equal_toIS5_EENS_14libc_allocatorIS7_EEE9SelectKeyENSF_6SetKeyESC_SE_E5clearEv, symObjAddr: 0x1B890, symBinAddr: 0x10001E2F8, symSize: 0xD0 }
  - { offsetInCU: 0x19AB15, offset: 0x3FED7F, size: 0x8, addend: 0x0, symName: __ZN3spp16sparse_hashtableINSt3__14pairIKxNS1_6vectorINS2_IxbEENS1_9allocatorIS5_EEEEEExN2vg9wang_hashIxvEENS_15sparse_hash_mapIxS8_SC_NS1_8equal_toIxEENS_14libc_allocatorIS9_EEE9SelectKeyENSI_6SetKeyESF_SH_E5clearEv, symObjAddr: 0x1D324, symBinAddr: 0x10001F8B0, symSize: 0x10C }
  - { offsetInCU: 0x19B0B3, offset: 0x3FF31D, size: 0x8, addend: 0x0, symName: __ZN2vg2VG5clearEv.cold.1, symObjAddr: 0x5CCFC, symBinAddr: 0x10002A020, symSize: 0x3C }
  - { offsetInCU: 0x19B12F, offset: 0x3FF399, size: 0x8, addend: 0x0, symName: __ZN2vg2VG5clearEv.cold.2, symObjAddr: 0x5CD38, symBinAddr: 0x10002A05C, symSize: 0x3C }
  - { offsetInCU: 0x19B246, offset: 0x3FF4B0, size: 0x8, addend: 0x0, symName: __ZN2vg2VG12swap_handlesERKN11handlegraph8handle_tES4_, symObjAddr: 0x3FC0, symBinAddr: 0x1000146F0, symSize: 0xC8 }
  - { offsetInCU: 0x19B486, offset: 0x3FF6F0, size: 0x8, addend: 0x0, symName: __ZN3spp16sparse_hashtableINSt3__14pairIKPN2vg4NodeEiEES5_NS3_9wang_hashIS5_vEENS_15sparse_hash_mapIS5_iS9_NS1_8equal_toIS5_EENS_14libc_allocatorIS7_EEE9SelectKeyENSF_6SetKeyESC_SE_E14find_or_insertINSF_12DefaultValueEEERS7_RS6_, symObjAddr: 0x19A18, symBinAddr: 0x10001C4C8, symSize: 0x224 }
  - { offsetInCU: 0x19BAFF, offset: 0x3FFD69, size: 0x8, addend: 0x0, symName: __ZN3spp16sparse_hashtableINSt3__14pairIKPN2vg4NodeEiEES5_NS3_9wang_hashIS5_vEENS_15sparse_hash_mapIS5_iS9_NS1_8equal_toIS5_EENS_14libc_allocatorIS7_EEE9SelectKeyENSF_6SetKeyESC_SE_E13_resize_deltaEm, symObjAddr: 0x19C3C, symBinAddr: 0x10001C6EC, symSize: 0x2EC }
  - { offsetInCU: 0x19BB13, offset: 0x3FFD7D, size: 0x8, addend: 0x0, symName: __ZN6google8protobuf8internal20RepeatedPtrFieldBase12SwapElementsEii, symObjAddr: 0x36AC4, symBinAddr: 0x1000249CC, symSize: 0x7C }
  - { offsetInCU: 0x19CADE, offset: 0x400D48, size: 0x8, addend: 0x0, symName: __ZN2vg2VG13divide_handleERKN11handlegraph8handle_tERKNSt3__16vectorImNS5_9allocatorImEEEE, symObjAddr: 0x44B8, symBinAddr: 0x100014BE8, symSize: 0x6C0 }
  - { offsetInCU: 0x19DFBD, offset: 0x402227, size: 0x8, addend: 0x0, symName: __ZN2vg2VG11divide_nodeEPNS_4NodeERNSt3__16vectorIiNS3_9allocatorIiEEEERNS4_IS2_NS5_IS2_EEEE, symObjAddr: 0xCDF4, symBinAddr: 0x100019B14, symSize: 0xFC8 }
  - { offsetInCU: 0x1A2729, offset: 0x406993, size: 0x8, addend: 0x0, symName: '__ZNSt3__110__function6__funcIZN11handlegraph20BoolReturningWrapperIZN2vg2VG17apply_orientationERKNS2_8handle_tEE3$_7Lb0EE4wrapERKS9_EUlDpOT_E_NS_9allocatorISG_EEFbS8_EED1Ev', symObjAddr: 0xCBB4, symBinAddr: 0x1000198D4, symSize: 0x4 }
  - { offsetInCU: 0x1A272C, offset: 0x406996, size: 0x8, addend: 0x0, symName: __ZN2vg2VG8optimizeEb, symObjAddr: 0x4B78, symBinAddr: 0x1000152A8, symSize: 0x4 }
  - { offsetInCU: 0x1A295F, offset: 0x406BC9, size: 0x8, addend: 0x0, symName: __ZN2vg2VG11compact_idsEv, symObjAddr: 0x2B3C4, symBinAddr: 0x100022698, symSize: 0xE0 }
  - { offsetInCU: 0x1A2DF1, offset: 0x40705B, size: 0x8, addend: 0x0, symName: __ZN2vg2VG16set_id_incrementERKx, symObjAddr: 0x4CD4, symBinAddr: 0x100015404, symSize: 0x4 }
  - { offsetInCU: 0x1A3337, offset: 0x4075A1, size: 0x8, addend: 0x0, symName: __ZN2vg2VG26build_indexes_no_init_sizeEv, symObjAddr: 0x27F2C, symBinAddr: 0x100021E68, symSize: 0xF0 }
  - { offsetInCU: 0x1A3BBF, offset: 0x407E29, size: 0x8, addend: 0x0, symName: __ZN6google8protobuf8internal20RepeatedPtrFieldBase7MutableINS0_16RepeatedPtrFieldIN2vg4NodeEE11TypeHandlerEEEPNT_4TypeEi, symObjAddr: 0x14280, symBinAddr: 0x10001AF3C, symSize: 0x70 }
  - { offsetInCU: 0x1A3D33, offset: 0x407F9D, size: 0x8, addend: 0x0, symName: __ZN6google8protobuf8internal20RepeatedPtrFieldBase7MutableINS0_16RepeatedPtrFieldIN2vg4EdgeEE11TypeHandlerEEEPNT_4TypeEi, symObjAddr: 0x27E3C, symBinAddr: 0x100021DF8, symSize: 0x70 }
  - { offsetInCU: 0x1A3EA7, offset: 0x408111, size: 0x8, addend: 0x0, symName: __ZTv0_n24_N2vg2VGD1Ev, symObjAddr: 0x5134, symBinAddr: 0x100015864, symSize: 0x18 }
  - { offsetInCU: 0x1A3EDE, offset: 0x408148, size: 0x8, addend: 0x0, symName: __ZTv0_n24_N2vg2VGD0Ev, symObjAddr: 0x514C, symBinAddr: 0x10001587C, symSize: 0x28 }
  - { offsetInCU: 0x1A3F06, offset: 0x408170, size: 0x8, addend: 0x0, symName: __ZTv0_n24_N2vg2VGD0Ev, symObjAddr: 0x514C, symBinAddr: 0x10001587C, symSize: 0x28 }
  - { offsetInCU: 0x1A3F8A, offset: 0x4081F4, size: 0x8, addend: 0x0, symName: __ZTv0_n96_NK2vg2VG13get_path_nameERKN11handlegraph13path_handle_tE, symObjAddr: 0x5174, symBinAddr: 0x1000158A4, symSize: 0xB8 }
  - { offsetInCU: 0x1A4352, offset: 0x4085BC, size: 0x8, addend: 0x0, symName: __ZTv0_n104_NK2vg2VG23get_path_handle_of_stepERKN11handlegraph13step_handle_tE, symObjAddr: 0x522C, symBinAddr: 0x10001595C, symSize: 0x8 }
  - { offsetInCU: 0x1A4388, offset: 0x4085F2, size: 0x8, addend: 0x0, symName: __ZTv0_n104_NK2vg2VG23get_path_handle_of_stepERKN11handlegraph13step_handle_tE, symObjAddr: 0x522C, symBinAddr: 0x10001595C, symSize: 0x8 }
  - { offsetInCU: 0x1A43A2, offset: 0x40860C, size: 0x8, addend: 0x0, symName: __ZTv0_n104_NK2vg2VG23get_path_handle_of_stepERKN11handlegraph13step_handle_tE, symObjAddr: 0x522C, symBinAddr: 0x10001595C, symSize: 0x8 }
  - { offsetInCU: 0x1A43E6, offset: 0x408650, size: 0x8, addend: 0x0, symName: __ZTv0_n112_NK2vg2VG25for_each_path_handle_implERKNSt3__18functionIFbRKN11handlegraph13path_handle_tEEEE, symObjAddr: 0x5234, symBinAddr: 0x100015964, symSize: 0xE4 }
  - { offsetInCU: 0x1A466D, offset: 0x4088D7, size: 0x8, addend: 0x0, symName: __ZTv0_n120_NK2vg2VG28for_each_step_on_handle_implERKN11handlegraph8handle_tERKNSt3__18functionIFbRKNS1_13step_handle_tEEEE, symObjAddr: 0x5318, symBinAddr: 0x100015A48, symSize: 0x10 }
  - { offsetInCU: 0x1A4687, offset: 0x4088F1, size: 0x8, addend: 0x0, symName: __ZTv0_n144_N2vg2VG18create_path_handleERKNSt3__112basic_stringIcNS1_11char_traitsIcEENS1_9allocatorIcEEEEb, symObjAddr: 0x5328, symBinAddr: 0x100015A58, symSize: 0x60 }
  - { offsetInCU: 0x1A46D2, offset: 0x40893C, size: 0x8, addend: 0x0, symName: __ZTv0_n144_N2vg2VG18create_path_handleERKNSt3__112basic_stringIcNS1_11char_traitsIcEENS1_9allocatorIcEEEEb, symObjAddr: 0x5328, symBinAddr: 0x100015A58, symSize: 0x60 }
  - { offsetInCU: 0x1A4712, offset: 0x40897C, size: 0x8, addend: 0x0, symName: __ZTv0_n184_N2vg2VG13create_handleERKNSt3__112basic_stringIcNS1_11char_traitsIcEENS1_9allocatorIcEEEE, symObjAddr: 0x5388, symBinAddr: 0x100015AB8, symSize: 0x10 }
  - { offsetInCU: 0x1A472A, offset: 0x408994, size: 0x8, addend: 0x0, symName: __ZTv0_n184_N2vg2VG13create_handleERKNSt3__112basic_stringIcNS1_11char_traitsIcEENS1_9allocatorIcEEEE, symObjAddr: 0x5388, symBinAddr: 0x100015AB8, symSize: 0x10 }
  - { offsetInCU: 0x1A4744, offset: 0x4089AE, size: 0x8, addend: 0x0, symName: __ZTv0_n192_N2vg2VG13create_handleERKNSt3__112basic_stringIcNS1_11char_traitsIcEENS1_9allocatorIcEEEERKx, symObjAddr: 0x5398, symBinAddr: 0x100015AC8, symSize: 0x10 }
  - { offsetInCU: 0x1A4757, offset: 0x4089C1, size: 0x8, addend: 0x0, symName: __ZTv0_n192_N2vg2VG13create_handleERKNSt3__112basic_stringIcNS1_11char_traitsIcEENS1_9allocatorIcEEEERKx, symObjAddr: 0x5398, symBinAddr: 0x100015AC8, symSize: 0x10 }
  - { offsetInCU: 0x1A4771, offset: 0x4089DB, size: 0x8, addend: 0x0, symName: __ZTv0_n200_N2vg2VG11create_edgeERKN11handlegraph8handle_tES4_, symObjAddr: 0x53A8, symBinAddr: 0x100015AD8, symSize: 0xC0 }
  - { offsetInCU: 0x1A47BC, offset: 0x408A26, size: 0x8, addend: 0x0, symName: __ZTv0_n200_N2vg2VG11create_edgeERKN11handlegraph8handle_tES4_, symObjAddr: 0x53A8, symBinAddr: 0x100015AD8, symSize: 0xC0 }
  - { offsetInCU: 0x1A4935, offset: 0x408B9F, size: 0x8, addend: 0x0, symName: __ZTv0_n208_N2vg2VG17apply_orientationERKN11handlegraph8handle_tE, symObjAddr: 0x5468, symBinAddr: 0x100015B98, symSize: 0x10 }
  - { offsetInCU: 0x1A494D, offset: 0x408BB7, size: 0x8, addend: 0x0, symName: __ZTv0_n208_N2vg2VG17apply_orientationERKN11handlegraph8handle_tE, symObjAddr: 0x5468, symBinAddr: 0x100015B98, symSize: 0x10 }
  - { offsetInCU: 0x1A4968, offset: 0x408BD2, size: 0x8, addend: 0x0, symName: __ZTv0_n216_N2vg2VG13divide_handleERKN11handlegraph8handle_tERKNSt3__16vectorImNS5_9allocatorImEEEE, symObjAddr: 0x5478, symBinAddr: 0x100015BA8, symSize: 0x10 }
  - { offsetInCU: 0x1A497B, offset: 0x408BE5, size: 0x8, addend: 0x0, symName: __ZTv0_n216_N2vg2VG13divide_handleERKN11handlegraph8handle_tERKNSt3__16vectorImNS5_9allocatorImEEEE, symObjAddr: 0x5478, symBinAddr: 0x100015BA8, symSize: 0x10 }
  - { offsetInCU: 0x1A4996, offset: 0x408C00, size: 0x8, addend: 0x0, symName: __ZTv0_n224_N2vg2VG8optimizeEb, symObjAddr: 0x5488, symBinAddr: 0x100015BB8, symSize: 0x4 }
  - { offsetInCU: 0x1A49B7, offset: 0x408C21, size: 0x8, addend: 0x0, symName: __ZTv0_n224_N2vg2VG8optimizeEb, symObjAddr: 0x5488, symBinAddr: 0x100015BB8, symSize: 0x4 }
  - { offsetInCU: 0x1A49CE, offset: 0x408C38, size: 0x8, addend: 0x0, symName: __ZTv0_n232_N2vg2VG14apply_orderingERKNSt3__16vectorIN11handlegraph8handle_tENS1_9allocatorIS4_EEEEb, symObjAddr: 0x548C, symBinAddr: 0x100015BBC, symSize: 0x10 }
  - { offsetInCU: 0x1A49E9, offset: 0x408C53, size: 0x8, addend: 0x0, symName: __ZTv0_n240_N2vg2VG16set_id_incrementERKx, symObjAddr: 0x549C, symBinAddr: 0x100015BCC, symSize: 0x4 }
  - { offsetInCU: 0x1A4A03, offset: 0x408C6D, size: 0x8, addend: 0x0, symName: __ZTv0_n240_N2vg2VG16set_id_incrementERKx, symObjAddr: 0x549C, symBinAddr: 0x100015BCC, symSize: 0x4 }
  - { offsetInCU: 0x1A4A1A, offset: 0x408C84, size: 0x8, addend: 0x0, symName: __ZTv0_n248_N2vg2VG18increment_node_idsEx, symObjAddr: 0x54A0, symBinAddr: 0x100015BD0, symSize: 0x10 }
  - { offsetInCU: 0x1A4A35, offset: 0x408C9F, size: 0x8, addend: 0x0, symName: __ZTv0_n264_N2vg2VG17reassign_node_idsERKNSt3__18functionIFxRKxEEE, symObjAddr: 0x54B0, symBinAddr: 0x100015BE0, symSize: 0x14 }
  - { offsetInCU: 0x1A4A48, offset: 0x408CB2, size: 0x8, addend: 0x0, symName: __ZTv0_n264_N2vg2VG17reassign_node_idsERKNSt3__18functionIFxRKxEEE, symObjAddr: 0x54B0, symBinAddr: 0x100015BE0, symSize: 0x14 }
  - { offsetInCU: 0x1A4A63, offset: 0x408CCD, size: 0x8, addend: 0x0, symName: __ZTv0_n280_N2vg2VG14destroy_handleERKN11handlegraph8handle_tE, symObjAddr: 0x54C4, symBinAddr: 0x100015BF4, symSize: 0x14 }
  - { offsetInCU: 0x1A4A76, offset: 0x408CE0, size: 0x8, addend: 0x0, symName: __ZTv0_n280_N2vg2VG14destroy_handleERKN11handlegraph8handle_tE, symObjAddr: 0x54C4, symBinAddr: 0x100015BF4, symSize: 0x14 }
  - { offsetInCU: 0x1A4A91, offset: 0x408CFB, size: 0x8, addend: 0x0, symName: __ZTv0_n288_N2vg2VG12destroy_edgeERKN11handlegraph8handle_tES4_, symObjAddr: 0x54D8, symBinAddr: 0x100015C08, symSize: 0x14 }
  - { offsetInCU: 0x1A4AA4, offset: 0x408D0E, size: 0x8, addend: 0x0, symName: __ZTv0_n288_N2vg2VG12destroy_edgeERKN11handlegraph8handle_tES4_, symObjAddr: 0x54D8, symBinAddr: 0x100015C08, symSize: 0x14 }
  - { offsetInCU: 0x1A4ABF, offset: 0x408D29, size: 0x8, addend: 0x0, symName: __ZTv0_n304_N2vg2VG5clearEv, symObjAddr: 0x54EC, symBinAddr: 0x100015C1C, symSize: 0x14 }
  - { offsetInCU: 0x1A4AD9, offset: 0x408D43, size: 0x8, addend: 0x0, symName: __ZTv0_n304_N2vg2VG5clearEv, symObjAddr: 0x54EC, symBinAddr: 0x100015C1C, symSize: 0x14 }
  - { offsetInCU: 0x1A621B, offset: 0x40A485, size: 0x8, addend: 0x0, symName: __ZNSt3__16__treeINS_12__value_typeINS_12basic_stringIcNS_11char_traitsIcEENS_9allocatorIcEEEEN2vg14SnarlTraversalEEENS_19__map_value_compareIS7_SA_NS_4lessIS7_EELb1EEENS5_ISA_EEE7destroyEPNS_11__tree_nodeISA_PvEE, symObjAddr: 0x6010, symBinAddr: 0x100015F64, symSize: 0x68 }
  - { offsetInCU: 0x1A6AA2, offset: 0x40AD0C, size: 0x8, addend: 0x0, symName: __ZN2vg5PathsD2Ev, symObjAddr: 0x6078, symBinAddr: 0x100015FCC, symSize: 0x14C }
  - { offsetInCU: 0x1A8E54, offset: 0x40D0BE, size: 0x8, addend: 0x0, symName: __ZNSt3__16__treeIxNS_4lessIxEENS_9allocatorIxEEE7destroyEPNS_11__tree_nodeIxPvEE, symObjAddr: 0x6350, symBinAddr: 0x100016118, symSize: 0x40 }
  - { offsetInCU: 0x1A9363, offset: 0x40D5CD, size: 0x8, addend: 0x0, symName: __ZNSt3__16__treeINS_12__value_typeIxNS_12basic_stringIcNS_11char_traitsIcEENS_9allocatorIcEEEEEENS_19__map_value_compareIxS8_NS_4lessIxEELb1EEENS5_IS8_EEE7destroyEPNS_11__tree_nodeIS8_PvEE, symObjAddr: 0x64DC, symBinAddr: 0x100016158, symSize: 0x60 }
  - { offsetInCU: 0x1AA148, offset: 0x40E3B2, size: 0x8, addend: 0x0, symName: '__ZNSt3__110__function6__funcIZN2vg2VG12from_istreamERNS_13basic_istreamIcNS_11char_traitsIcEEEEbbE3$_0NS_9allocatorIS9_EEFvRNS2_5GraphEEED1Ev', symObjAddr: 0x69B8, symBinAddr: 0x1000161B8, symSize: 0x4 }
  - { offsetInCU: 0x1AA174, offset: 0x40E3DE, size: 0x8, addend: 0x0, symName: '__ZNSt3__110__function6__funcIZN2vg2VG12from_istreamERNS_13basic_istreamIcNS_11char_traitsIcEEEEbbE3$_0NS_9allocatorIS9_EEFvRNS2_5GraphEEED0Ev', symObjAddr: 0x69BC, symBinAddr: 0x1000161BC, symSize: 0x4 }
  - { offsetInCU: 0x1AA35D, offset: 0x40E5C7, size: 0x8, addend: 0x0, symName: '__ZNKSt3__110__function6__funcIZN2vg2VG12from_istreamERNS_13basic_istreamIcNS_11char_traitsIcEEEEbbE3$_0NS_9allocatorIS9_EEFvRNS2_5GraphEEE7__cloneEv', symObjAddr: 0x69C0, symBinAddr: 0x1000161C0, symSize: 0x40 }
  - { offsetInCU: 0x1AA688, offset: 0x40E8F2, size: 0x8, addend: 0x0, symName: '__ZNKSt3__110__function6__funcIZN2vg2VG12from_istreamERNS_13basic_istreamIcNS_11char_traitsIcEEEEbbE3$_0NS_9allocatorIS9_EEFvRNS2_5GraphEEE7__cloneEPNS0_6__baseISE_EE', symObjAddr: 0x6A00, symBinAddr: 0x100016200, symSize: 0x20 }
  - { offsetInCU: 0x1AA6C1, offset: 0x40E92B, size: 0x8, addend: 0x0, symName: '__ZNKSt3__110__function6__funcIZN2vg2VG12from_istreamERNS_13basic_istreamIcNS_11char_traitsIcEEEEbbE3$_0NS_9allocatorIS9_EEFvRNS2_5GraphEEE7__cloneEPNS0_6__baseISE_EE', symObjAddr: 0x6A00, symBinAddr: 0x100016200, symSize: 0x20 }
  - { offsetInCU: 0x1AA6E6, offset: 0x40E950, size: 0x8, addend: 0x0, symName: '__ZNKSt3__110__function6__funcIZN2vg2VG12from_istreamERNS_13basic_istreamIcNS_11char_traitsIcEEEEbbE3$_0NS_9allocatorIS9_EEFvRNS2_5GraphEEE7__cloneEPNS0_6__baseISE_EE', symObjAddr: 0x6A00, symBinAddr: 0x100016200, symSize: 0x20 }
  - { offsetInCU: 0x1AA7CE, offset: 0x40EA38, size: 0x8, addend: 0x0, symName: '__ZNSt3__110__function6__funcIZN2vg2VG12from_istreamERNS_13basic_istreamIcNS_11char_traitsIcEEEEbbE3$_0NS_9allocatorIS9_EEFvRNS2_5GraphEEE7destroyEv', symObjAddr: 0x6A20, symBinAddr: 0x100016220, symSize: 0x4 }
  - { offsetInCU: 0x1AA821, offset: 0x40EA8B, size: 0x8, addend: 0x0, symName: '__ZNSt3__110__function6__funcIZN2vg2VG12from_istreamERNS_13basic_istreamIcNS_11char_traitsIcEEEEbbE3$_0NS_9allocatorIS9_EEFvRNS2_5GraphEEE18destroy_deallocateEv', symObjAddr: 0x6A24, symBinAddr: 0x100016224, symSize: 0x4 }
  - { offsetInCU: 0x1AA857, offset: 0x40EAC1, size: 0x8, addend: 0x0, symName: '__ZNSt3__110__function6__funcIZN2vg2VG12from_istreamERNS_13basic_istreamIcNS_11char_traitsIcEEEEbbE3$_0NS_9allocatorIS9_EEFvRNS2_5GraphEEE18destroy_deallocateEv', symObjAddr: 0x6A24, symBinAddr: 0x100016224, symSize: 0x4 }
  - { offsetInCU: 0x1AA879, offset: 0x40EAE3, size: 0x8, addend: 0x0, symName: '__ZNSt3__110__function6__funcIZN2vg2VG12from_istreamERNS_13basic_istreamIcNS_11char_traitsIcEEEEbbE3$_0NS_9allocatorIS9_EEFvRNS2_5GraphEEE18destroy_deallocateEv', symObjAddr: 0x6A24, symBinAddr: 0x100016224, symSize: 0x4 }
  - { offsetInCU: 0x1AA8A5, offset: 0x40EB0F, size: 0x8, addend: 0x0, symName: '__ZNSt3__110__function6__funcIZN2vg2VG12from_istreamERNS_13basic_istreamIcNS_11char_traitsIcEEEEbbE3$_0NS_9allocatorIS9_EEFvRNS2_5GraphEEE18destroy_deallocateEv', symObjAddr: 0x6A24, symBinAddr: 0x100016224, symSize: 0x4 }
  - { offsetInCU: 0x1AA8CC, offset: 0x40EB36, size: 0x8, addend: 0x0, symName: '__ZNSt3__110__function6__funcIZN2vg2VG12from_istreamERNS_13basic_istreamIcNS_11char_traitsIcEEEEbbE3$_0NS_9allocatorIS9_EEFvRNS2_5GraphEEE18destroy_deallocateEv', symObjAddr: 0x6A24, symBinAddr: 0x100016224, symSize: 0x4 }
  - { offsetInCU: 0x1AA976, offset: 0x40EBE0, size: 0x8, addend: 0x0, symName: '__ZNSt3__110__function6__funcIZN2vg2VG12from_istreamERNS_13basic_istreamIcNS_11char_traitsIcEEEEbbE3$_0NS_9allocatorIS9_EEFvRNS2_5GraphEEEclESD_', symObjAddr: 0x6A28, symBinAddr: 0x100016228, symSize: 0xD0 }
  - { offsetInCU: 0x1AAADB, offset: 0x40ED45, size: 0x8, addend: 0x0, symName: __ZN2vg2VG6extendERKNS_5GraphEb, symObjAddr: 0x6B64, symBinAddr: 0x100016364, symSize: 0x474 }
  - { offsetInCU: 0x1AB80B, offset: 0x40FA75, size: 0x8, addend: 0x0, symName: '__ZNKSt3__110__function6__funcIZN2vg2VG12from_istreamERNS_13basic_istreamIcNS_11char_traitsIcEEEEbbE3$_0NS_9allocatorIS9_EEFvRNS2_5GraphEEE6targetERKSt9type_info', symObjAddr: 0x6AF8, symBinAddr: 0x1000162F8, symSize: 0x60 }
  - { offsetInCU: 0x1AB891, offset: 0x40FAFB, size: 0x8, addend: 0x0, symName: '__ZNKSt3__110__function6__funcIZN2vg2VG12from_istreamERNS_13basic_istreamIcNS_11char_traitsIcEEEEbbE3$_0NS_9allocatorIS9_EEFvRNS2_5GraphEEE11target_typeEv', symObjAddr: 0x6B58, symBinAddr: 0x100016358, symSize: 0xC }
  - { offsetInCU: 0x1ABBCD, offset: 0x40FE37, size: 0x8, addend: 0x0, symName: __ZN6google8protobuf16RepeatedPtrFieldIN2vg4NodeEE3AddEv, symObjAddr: 0x9B08, symBinAddr: 0x1000176DC, symSize: 0xC }
  - { offsetInCU: 0x1ABBF7, offset: 0x40FE61, size: 0x8, addend: 0x0, symName: __ZN6google8protobuf16RepeatedPtrFieldIN2vg4NodeEE3AddEv, symObjAddr: 0x9B08, symBinAddr: 0x1000176DC, symSize: 0xC }
  - { offsetInCU: 0x1ABC21, offset: 0x40FE8B, size: 0x8, addend: 0x0, symName: __ZN3spp16sparse_hashtableINSt3__14pairIKxPN2vg4NodeEEExNS4_9wang_hashIxvEENS_15sparse_hash_mapIxS6_S9_NS1_8equal_toIxEENS_14libc_allocatorIS7_EEE9SelectKeyENSF_6SetKeyESC_SE_E14find_or_insertINSF_12DefaultValueEEERS7_RS3_, symObjAddr: 0x188B4, symBinAddr: 0x10001B364, symSize: 0x224 }
  - { offsetInCU: 0x1AC29A, offset: 0x410504, size: 0x8, addend: 0x0, symName: __ZN3spp16sparse_hashtableINSt3__14pairIKxPN2vg4NodeEEExNS4_9wang_hashIxvEENS_15sparse_hash_mapIxS6_S9_NS1_8equal_toIxEENS_14libc_allocatorIS7_EEE9SelectKeyENSF_6SetKeyESC_SE_E13_resize_deltaEm, symObjAddr: 0x18AD8, symBinAddr: 0x10001B588, symSize: 0x2EC }
  - { offsetInCU: 0x1AC2AE, offset: 0x410518, size: 0x8, addend: 0x0, symName: __ZN2vg2VG24index_edge_by_node_sidesEPNS_4EdgeE, symObjAddr: 0x261DC, symBinAddr: 0x10002197C, symSize: 0x47C }
  - { offsetInCU: 0x1AD508, offset: 0x411772, size: 0x8, addend: 0x0, symName: __ZN3spp16sparse_hashtableINSt3__14pairIKPN2vg4EdgeEiEES5_NS3_9wang_hashIS5_vEENS_15sparse_hash_mapIS5_iS9_NS1_8equal_toIS5_EENS_14libc_allocatorIS7_EEE9SelectKeyENSF_6SetKeyESC_SE_E14find_or_insertINSF_12DefaultValueEEERS7_RS6_, symObjAddr: 0x1AD18, symBinAddr: 0x10001D780, symSize: 0x224 }
  - { offsetInCU: 0x1ADB81, offset: 0x411DEB, size: 0x8, addend: 0x0, symName: __ZN3spp16sparse_hashtableINSt3__14pairIKPN2vg4EdgeEiEES5_NS3_9wang_hashIS5_vEENS_15sparse_hash_mapIS5_iS9_NS1_8equal_toIS5_EENS_14libc_allocatorIS7_EEE9SelectKeyENSF_6SetKeyESC_SE_E13_resize_deltaEm, symObjAddr: 0x1AF3C, symBinAddr: 0x10001D9A4, symSize: 0x2EC }
  - { offsetInCU: 0x1ADB9B, offset: 0x411E05, size: 0x8, addend: 0x0, symName: __ZNK6google8protobuf8internal20RepeatedPtrFieldBase3GetINS0_16RepeatedPtrFieldIN2vg4EdgeEE11TypeHandlerEEERKNT_4TypeEi, symObjAddr: 0x2A284, symBinAddr: 0x100022628, symSize: 0x70 }
  - { offsetInCU: 0x1ADD2F, offset: 0x411F99, size: 0x8, addend: 0x0, symName: __ZNK2vg2VG8has_edgeERKNS_4EdgeE, symObjAddr: 0x1AB8C, symBinAddr: 0x10001D63C, symSize: 0x144 }
  - { offsetInCU: 0x1AE0AC, offset: 0x412316, size: 0x8, addend: 0x0, symName: __ZN6google8protobuf16RepeatedPtrFieldIN2vg4EdgeEE3AddEv, symObjAddr: 0x9DFC, symBinAddr: 0x100017934, symSize: 0xC }
  - { offsetInCU: 0x1AE0D6, offset: 0x412340, size: 0x8, addend: 0x0, symName: __ZN6google8protobuf16RepeatedPtrFieldIN2vg4EdgeEE3AddEv, symObjAddr: 0x9DFC, symBinAddr: 0x100017934, symSize: 0xC }
  - { offsetInCU: 0x1AE38C, offset: 0x4125F6, size: 0x8, addend: 0x0, symName: __ZN2vg2io16ProtobufIteratorINS_5GraphEEC1ERNSt3__113basic_istreamIcNS4_11char_traitsIcEEEE, symObjAddr: 0x70EC, symBinAddr: 0x1000168EC, symSize: 0x6C }
  - { offsetInCU: 0x1AE499, offset: 0x412703, size: 0x8, addend: 0x0, symName: __ZN2vg2io16ProtobufIteratorINS_5GraphEE10fill_valueEv, symObjAddr: 0x7214, symBinAddr: 0x100016A14, symSize: 0x25C }
  - { offsetInCU: 0x1AEBBA, offset: 0x412E24, size: 0x8, addend: 0x0, symName: __ZN2vg2io16ProtobufIteratorINS_5GraphEED1Ev, symObjAddr: 0x7158, symBinAddr: 0x100016958, symSize: 0xBC }
  - { offsetInCU: 0x1AF0B7, offset: 0x413321, size: 0x8, addend: 0x0, symName: __ZN2vg2io16ProtobufIteratorINS_5GraphEEC1ERNSt3__113basic_istreamIcNS4_11char_traitsIcEEEE.cold.1, symObjAddr: 0x5CD74, symBinAddr: 0x10002A098, symSize: 0x80 }
  - { offsetInCU: 0x1AF5A5, offset: 0x41380F, size: 0x8, addend: 0x0, symName: __ZN2vg2io8Registry18check_protobuf_tagINS_5GraphEEEbRKNSt3__112basic_stringIcNS4_11char_traitsIcEENS4_9allocatorIcEEEE, symObjAddr: 0x7470, symBinAddr: 0x100016C70, symSize: 0x14C }
  - { offsetInCU: 0x1AF879, offset: 0x413AE3, size: 0x8, addend: 0x0, symName: __ZN2vg2io16ProtobufIteratorINS_5GraphEE17parse_from_stringERS2_RKNSt3__112basic_stringIcNS5_11char_traitsIcEENS5_9allocatorIcEEEE, symObjAddr: 0x7634, symBinAddr: 0x100016E34, symSize: 0xCC }
  - { offsetInCU: 0x1AF976, offset: 0x413BE0, size: 0x8, addend: 0x0, symName: __ZN2vg2io8Registry16get_protobuf_tagINS_5GraphEEERKNSt3__112basic_stringIcNS4_11char_traitsIcEENS4_9allocatorIcEEEEv, symObjAddr: 0x75BC, symBinAddr: 0x100016DBC, symSize: 0x78 }
  - { offsetInCU: 0x1AFAEB, offset: 0x413D55, size: 0x8, addend: 0x0, symName: __ZN2vg2io16ProtobufIteratorINS_5GraphEE17parse_from_stringERS2_RKNSt3__112basic_stringIcNS5_11char_traitsIcEENS5_9allocatorIcEEEE, symObjAddr: 0x7634, symBinAddr: 0x100016E34, symSize: 0xCC }
  - { offsetInCU: 0x1AFF3E, offset: 0x4141A8, size: 0x8, addend: 0x0, symName: __ZN2vg2io8Registry16get_protobuf_tagINS_5GraphEEERKNSt3__112basic_stringIcNS4_11char_traitsIcEENS4_9allocatorIcEEEEv.cold.1, symObjAddr: 0x5CDF4, symBinAddr: 0x10002A118, symSize: 0x28 }
  - { offsetInCU: 0x1B0AF4, offset: 0x414D5E, size: 0x8, addend: 0x0, symName: __ZNSt3__110__function6__funcIZN2vg2io8for_eachINS2_5GraphEEEvRNS_13basic_istreamIcNS_11char_traitsIcEEEERKNS_8functionIFvRT_EEEEUlxRS5_E_NS_9allocatorISJ_EEFvxSI_EED1Ev, symObjAddr: 0x803C, symBinAddr: 0x100016F00, symSize: 0x4 }
  - { offsetInCU: 0x1B0B20, offset: 0x414D8A, size: 0x8, addend: 0x0, symName: __ZNSt3__110__function6__funcIZN2vg2io8for_eachINS2_5GraphEEEvRNS_13basic_istreamIcNS_11char_traitsIcEEEERKNS_8functionIFvRT_EEEEUlxRS5_E_NS_9allocatorISJ_EEFvxSI_EED0Ev, symObjAddr: 0x8040, symBinAddr: 0x100016F04, symSize: 0x4 }
  - { offsetInCU: 0x1B0D30, offset: 0x414F9A, size: 0x8, addend: 0x0, symName: __ZNKSt3__110__function6__funcIZN2vg2io8for_eachINS2_5GraphEEEvRNS_13basic_istreamIcNS_11char_traitsIcEEEERKNS_8functionIFvRT_EEEEUlxRS5_E_NS_9allocatorISJ_EEFvxSI_EE7__cloneEv, symObjAddr: 0x8044, symBinAddr: 0x100016F08, symSize: 0x38 }
  - { offsetInCU: 0x1B102E, offset: 0x415298, size: 0x8, addend: 0x0, symName: __ZNKSt3__110__function6__funcIZN2vg2io8for_eachINS2_5GraphEEEvRNS_13basic_istreamIcNS_11char_traitsIcEEEERKNS_8functionIFvRT_EEEEUlxRS5_E_NS_9allocatorISJ_EEFvxSI_EE7__cloneEPNS0_6__baseISM_EE, symObjAddr: 0x807C, symBinAddr: 0x100016F40, symSize: 0x18 }
  - { offsetInCU: 0x1B1067, offset: 0x4152D1, size: 0x8, addend: 0x0, symName: __ZNKSt3__110__function6__funcIZN2vg2io8for_eachINS2_5GraphEEEvRNS_13basic_istreamIcNS_11char_traitsIcEEEERKNS_8functionIFvRT_EEEEUlxRS5_E_NS_9allocatorISJ_EEFvxSI_EE7__cloneEPNS0_6__baseISM_EE, symObjAddr: 0x807C, symBinAddr: 0x100016F40, symSize: 0x18 }
  - { offsetInCU: 0x1B1095, offset: 0x4152FF, size: 0x8, addend: 0x0, symName: __ZNKSt3__110__function6__funcIZN2vg2io8for_eachINS2_5GraphEEEvRNS_13basic_istreamIcNS_11char_traitsIcEEEERKNS_8functionIFvRT_EEEEUlxRS5_E_NS_9allocatorISJ_EEFvxSI_EE7__cloneEPNS0_6__baseISM_EE, symObjAddr: 0x807C, symBinAddr: 0x100016F40, symSize: 0x18 }
  - { offsetInCU: 0x1B112C, offset: 0x415396, size: 0x8, addend: 0x0, symName: __ZNSt3__110__function6__funcIZN2vg2io8for_eachINS2_5GraphEEEvRNS_13basic_istreamIcNS_11char_traitsIcEEEERKNS_8functionIFvRT_EEEEUlxRS5_E_NS_9allocatorISJ_EEFvxSI_EE7destroyEv, symObjAddr: 0x8094, symBinAddr: 0x100016F58, symSize: 0x4 }
  - { offsetInCU: 0x1B1181, offset: 0x4153EB, size: 0x8, addend: 0x0, symName: __ZNSt3__110__function6__funcIZN2vg2io8for_eachINS2_5GraphEEEvRNS_13basic_istreamIcNS_11char_traitsIcEEEERKNS_8functionIFvRT_EEEEUlxRS5_E_NS_9allocatorISJ_EEFvxSI_EE18destroy_deallocateEv, symObjAddr: 0x8098, symBinAddr: 0x100016F5C, symSize: 0x4 }
  - { offsetInCU: 0x1B11B7, offset: 0x415421, size: 0x8, addend: 0x0, symName: __ZNSt3__110__function6__funcIZN2vg2io8for_eachINS2_5GraphEEEvRNS_13basic_istreamIcNS_11char_traitsIcEEEERKNS_8functionIFvRT_EEEEUlxRS5_E_NS_9allocatorISJ_EEFvxSI_EE18destroy_deallocateEv, symObjAddr: 0x8098, symBinAddr: 0x100016F5C, symSize: 0x4 }
  - { offsetInCU: 0x1B11D9, offset: 0x415443, size: 0x8, addend: 0x0, symName: __ZNSt3__110__function6__funcIZN2vg2io8for_eachINS2_5GraphEEEvRNS_13basic_istreamIcNS_11char_traitsIcEEEERKNS_8functionIFvRT_EEEEUlxRS5_E_NS_9allocatorISJ_EEFvxSI_EE18destroy_deallocateEv, symObjAddr: 0x8098, symBinAddr: 0x100016F5C, symSize: 0x4 }
  - { offsetInCU: 0x1B1204, offset: 0x41546E, size: 0x8, addend: 0x0, symName: __ZNSt3__110__function6__funcIZN2vg2io8for_eachINS2_5GraphEEEvRNS_13basic_istreamIcNS_11char_traitsIcEEEERKNS_8functionIFvRT_EEEEUlxRS5_E_NS_9allocatorISJ_EEFvxSI_EE18destroy_deallocateEv, symObjAddr: 0x8098, symBinAddr: 0x100016F5C, symSize: 0x4 }
  - { offsetInCU: 0x1B122A, offset: 0x415494, size: 0x8, addend: 0x0, symName: __ZNSt3__110__function6__funcIZN2vg2io8for_eachINS2_5GraphEEEvRNS_13basic_istreamIcNS_11char_traitsIcEEEERKNS_8functionIFvRT_EEEEUlxRS5_E_NS_9allocatorISJ_EEFvxSI_EE18destroy_deallocateEv, symObjAddr: 0x8098, symBinAddr: 0x100016F5C, symSize: 0x4 }
  - { offsetInCU: 0x1B134F, offset: 0x4155B9, size: 0x8, addend: 0x0, symName: __ZNSt3__110__function6__funcIZN2vg2io8for_eachINS2_5GraphEEEvRNS_13basic_istreamIcNS_11char_traitsIcEEEERKNS_8functionIFvRT_EEEEUlxRS5_E_NS_9allocatorISJ_EEFvxSI_EEclEOxSI_, symObjAddr: 0x809C, symBinAddr: 0x100016F60, symSize: 0x2C }
  - { offsetInCU: 0x1B1463, offset: 0x4156CD, size: 0x8, addend: 0x0, symName: __ZNKSt3__110__function6__funcIZN2vg2io8for_eachINS2_5GraphEEEvRNS_13basic_istreamIcNS_11char_traitsIcEEEERKNS_8functionIFvRT_EEEEUlxRS5_E_NS_9allocatorISJ_EEFvxSI_EE6targetERKSt9type_info, symObjAddr: 0x80C8, symBinAddr: 0x100016F8C, symSize: 0x74 }
  - { offsetInCU: 0x1B146E, offset: 0x4156D8, size: 0x8, addend: 0x0, symName: __ZNKSt3__110__function6__funcIZN2vg2io8for_eachINS2_5GraphEEEvRNS_13basic_istreamIcNS_11char_traitsIcEEEERKNS_8functionIFvRT_EEEEUlxRS5_E_NS_9allocatorISJ_EEFvxSI_EE6targetERKSt9type_info, symObjAddr: 0x80C8, symBinAddr: 0x100016F8C, symSize: 0x74 }
  - { offsetInCU: 0x1B14F4, offset: 0x41575E, size: 0x8, addend: 0x0, symName: __ZNKSt3__110__function6__funcIZN2vg2io8for_eachINS2_5GraphEEEvRNS_13basic_istreamIcNS_11char_traitsIcEEEERKNS_8functionIFvRT_EEEEUlxRS5_E_NS_9allocatorISJ_EEFvxSI_EE11target_typeEv, symObjAddr: 0x813C, symBinAddr: 0x100017000, symSize: 0xC }
  - { offsetInCU: 0x1B1AF9, offset: 0x415D63, size: 0x8, addend: 0x0, symName: __ZNSt3__16vectorINS_8functionIFvRKN2vg5GraphEEEENS_9allocatorIS7_EEED1B8ue170006Ev, symObjAddr: 0x96AC, symBinAddr: 0x10001731C, symSize: 0x8C }
  - { offsetInCU: 0x1B21A2, offset: 0x41640C, size: 0x8, addend: 0x0, symName: '__ZNSt3__110__function6__funcIZN11handlegraph20BoolReturningWrapperIZNK2vg2VG9serializeERNS_13basic_ostreamIcNS_11char_traitsIcEEEEE3$_2Lb0EE4wrapERKSB_EUlDpOT_E_NS_9allocatorISI_EEFbRKNS2_8handle_tEEED1Ev', symObjAddr: 0x97D4, symBinAddr: 0x1000173A8, symSize: 0x4 }
  - { offsetInCU: 0x1B21CE, offset: 0x416438, size: 0x8, addend: 0x0, symName: '__ZNSt3__110__function6__funcIZN11handlegraph20BoolReturningWrapperIZNK2vg2VG9serializeERNS_13basic_ostreamIcNS_11char_traitsIcEEEEE3$_2Lb0EE4wrapERKSB_EUlDpOT_E_NS_9allocatorISI_EEFbRKNS2_8handle_tEEED0Ev', symObjAddr: 0x97D8, symBinAddr: 0x1000173AC, symSize: 0x4 }
  - { offsetInCU: 0x1B2285, offset: 0x4164EF, size: 0x8, addend: 0x0, symName: '__ZNKSt3__110__function6__funcIZN11handlegraph20BoolReturningWrapperIZNK2vg2VG9serializeERNS_13basic_ostreamIcNS_11char_traitsIcEEEEE3$_2Lb0EE4wrapERKSB_EUlDpOT_E_NS_9allocatorISI_EEFbRKNS2_8handle_tEEE7__cloneEv', symObjAddr: 0x97DC, symBinAddr: 0x1000173B0, symSize: 0x34 }
  - { offsetInCU: 0x1B23CE, offset: 0x416638, size: 0x8, addend: 0x0, symName: '__ZNKSt3__110__function6__funcIZN11handlegraph20BoolReturningWrapperIZNK2vg2VG9serializeERNS_13basic_ostreamIcNS_11char_traitsIcEEEEE3$_2Lb0EE4wrapERKSB_EUlDpOT_E_NS_9allocatorISI_EEFbRKNS2_8handle_tEEE7__cloneEPNS0_6__baseISO_EE', symObjAddr: 0x9810, symBinAddr: 0x1000173E4, symSize: 0x14 }
  - { offsetInCU: 0x1B243E, offset: 0x4166A8, size: 0x8, addend: 0x0, symName: '__ZNSt3__110__function6__funcIZN11handlegraph20BoolReturningWrapperIZNK2vg2VG9serializeERNS_13basic_ostreamIcNS_11char_traitsIcEEEEE3$_2Lb0EE4wrapERKSB_EUlDpOT_E_NS_9allocatorISI_EEFbRKNS2_8handle_tEEE7destroyEv', symObjAddr: 0x9824, symBinAddr: 0x1000173F8, symSize: 0x4 }
  - { offsetInCU: 0x1B2491, offset: 0x4166FB, size: 0x8, addend: 0x0, symName: '__ZNSt3__110__function6__funcIZN11handlegraph20BoolReturningWrapperIZNK2vg2VG9serializeERNS_13basic_ostreamIcNS_11char_traitsIcEEEEE3$_2Lb0EE4wrapERKSB_EUlDpOT_E_NS_9allocatorISI_EEFbRKNS2_8handle_tEEE18destroy_deallocateEv', symObjAddr: 0x9828, symBinAddr: 0x1000173FC, symSize: 0x4 }
  - { offsetInCU: 0x1B24C7, offset: 0x416731, size: 0x8, addend: 0x0, symName: '__ZNSt3__110__function6__funcIZN11handlegraph20BoolReturningWrapperIZNK2vg2VG9serializeERNS_13basic_ostreamIcNS_11char_traitsIcEEEEE3$_2Lb0EE4wrapERKSB_EUlDpOT_E_NS_9allocatorISI_EEFbRKNS2_8handle_tEEE18destroy_deallocateEv', symObjAddr: 0x9828, symBinAddr: 0x1000173FC, symSize: 0x4 }
  - { offsetInCU: 0x1B24E9, offset: 0x416753, size: 0x8, addend: 0x0, symName: '__ZNSt3__110__function6__funcIZN11handlegraph20BoolReturningWrapperIZNK2vg2VG9serializeERNS_13basic_ostreamIcNS_11char_traitsIcEEEEE3$_2Lb0EE4wrapERKSB_EUlDpOT_E_NS_9allocatorISI_EEFbRKNS2_8handle_tEEE18destroy_deallocateEv', symObjAddr: 0x9828, symBinAddr: 0x1000173FC, symSize: 0x4 }
  - { offsetInCU: 0x1B2514, offset: 0x41677E, size: 0x8, addend: 0x0, symName: '__ZNSt3__110__function6__funcIZN11handlegraph20BoolReturningWrapperIZNK2vg2VG9serializeERNS_13basic_ostreamIcNS_11char_traitsIcEEEEE3$_2Lb0EE4wrapERKSB_EUlDpOT_E_NS_9allocatorISI_EEFbRKNS2_8handle_tEEE18destroy_deallocateEv', symObjAddr: 0x9828, symBinAddr: 0x1000173FC, symSize: 0x4 }
  - { offsetInCU: 0x1B253A, offset: 0x4167A4, size: 0x8, addend: 0x0, symName: '__ZNSt3__110__function6__funcIZN11handlegraph20BoolReturningWrapperIZNK2vg2VG9serializeERNS_13basic_ostreamIcNS_11char_traitsIcEEEEE3$_2Lb0EE4wrapERKSB_EUlDpOT_E_NS_9allocatorISI_EEFbRKNS2_8handle_tEEE18destroy_deallocateEv', symObjAddr: 0x9828, symBinAddr: 0x1000173FC, symSize: 0x4 }
  - { offsetInCU: 0x1B2C87, offset: 0x416EF1, size: 0x8, addend: 0x0, symName: '__ZNSt3__110__function6__funcIZN11handlegraph20BoolReturningWrapperIZNK2vg2VG9serializeERNS_13basic_ostreamIcNS_11char_traitsIcEEEEE3$_2Lb0EE4wrapERKSB_EUlDpOT_E_NS_9allocatorISI_EEFbRKNS2_8handle_tEEEclESN_', symObjAddr: 0x982C, symBinAddr: 0x100017400, symSize: 0x270 }
  - { offsetInCU: 0x1B35A3, offset: 0x41780D, size: 0x8, addend: 0x0, symName: '__ZNKSt3__110__function6__funcIZN11handlegraph20BoolReturningWrapperIZNK2vg2VG9serializeERNS_13basic_ostreamIcNS_11char_traitsIcEEEEE3$_2Lb0EE4wrapERKSB_EUlDpOT_E_NS_9allocatorISI_EEFbRKNS2_8handle_tEEE6targetERKSt9type_info', symObjAddr: 0x9A9C, symBinAddr: 0x100017670, symSize: 0x60 }
  - { offsetInCU: 0x1B3629, offset: 0x417893, size: 0x8, addend: 0x0, symName: '__ZNKSt3__110__function6__funcIZN11handlegraph20BoolReturningWrapperIZNK2vg2VG9serializeERNS_13basic_ostreamIcNS_11char_traitsIcEEEEE3$_2Lb0EE4wrapERKSB_EUlDpOT_E_NS_9allocatorISI_EEFbRKNS2_8handle_tEEE11target_typeEv', symObjAddr: 0x9AFC, symBinAddr: 0x1000176D0, symSize: 0xC }
  - { offsetInCU: 0x1B39BF, offset: 0x417C29, size: 0x8, addend: 0x0, symName: '__ZNSt3__110__function6__funcIZN11handlegraph20BoolReturningWrapperIZZNK2vg2VG9serializeERNS_13basic_ostreamIcNS_11char_traitsIcEEEEENK3$_2clERKNS2_8handle_tEEUlSE_E_Lb0EE4wrapERKSF_EUlDpOT_E_NS_9allocatorISM_EEFbSE_EED1Ev', symObjAddr: 0x9C14, symBinAddr: 0x10001774C, symSize: 0x4 }
  - { offsetInCU: 0x1B39EB, offset: 0x417C55, size: 0x8, addend: 0x0, symName: '__ZNSt3__110__function6__funcIZN11handlegraph20BoolReturningWrapperIZZNK2vg2VG9serializeERNS_13basic_ostreamIcNS_11char_traitsIcEEEEENK3$_2clERKNS2_8handle_tEEUlSE_E_Lb0EE4wrapERKSF_EUlDpOT_E_NS_9allocatorISM_EEFbSE_EED0Ev', symObjAddr: 0x9C18, symBinAddr: 0x100017750, symSize: 0x4 }
  - { offsetInCU: 0x1B3AA2, offset: 0x417D0C, size: 0x8, addend: 0x0, symName: '__ZNKSt3__110__function6__funcIZN11handlegraph20BoolReturningWrapperIZZNK2vg2VG9serializeERNS_13basic_ostreamIcNS_11char_traitsIcEEEEENK3$_2clERKNS2_8handle_tEEUlSE_E_Lb0EE4wrapERKSF_EUlDpOT_E_NS_9allocatorISM_EEFbSE_EE7__cloneEv', symObjAddr: 0x9C1C, symBinAddr: 0x100017754, symSize: 0x34 }
  - { offsetInCU: 0x1B3BEB, offset: 0x417E55, size: 0x8, addend: 0x0, symName: '__ZNKSt3__110__function6__funcIZN11handlegraph20BoolReturningWrapperIZZNK2vg2VG9serializeERNS_13basic_ostreamIcNS_11char_traitsIcEEEEENK3$_2clERKNS2_8handle_tEEUlSE_E_Lb0EE4wrapERKSF_EUlDpOT_E_NS_9allocatorISM_EEFbSE_EE7__cloneEPNS0_6__baseISP_EE', symObjAddr: 0x9C50, symBinAddr: 0x100017788, symSize: 0x14 }
  - { offsetInCU: 0x1B3C5B, offset: 0x417EC5, size: 0x8, addend: 0x0, symName: '__ZNSt3__110__function6__funcIZN11handlegraph20BoolReturningWrapperIZZNK2vg2VG9serializeERNS_13basic_ostreamIcNS_11char_traitsIcEEEEENK3$_2clERKNS2_8handle_tEEUlSE_E_Lb0EE4wrapERKSF_EUlDpOT_E_NS_9allocatorISM_EEFbSE_EE7destroyEv', symObjAddr: 0x9C64, symBinAddr: 0x10001779C, symSize: 0x4 }
  - { offsetInCU: 0x1B3CAE, offset: 0x417F18, size: 0x8, addend: 0x0, symName: '__ZNSt3__110__function6__funcIZN11handlegraph20BoolReturningWrapperIZZNK2vg2VG9serializeERNS_13basic_ostreamIcNS_11char_traitsIcEEEEENK3$_2clERKNS2_8handle_tEEUlSE_E_Lb0EE4wrapERKSF_EUlDpOT_E_NS_9allocatorISM_EEFbSE_EE18destroy_deallocateEv', symObjAddr: 0x9C68, symBinAddr: 0x1000177A0, symSize: 0x4 }
  - { offsetInCU: 0x1B3CE4, offset: 0x417F4E, size: 0x8, addend: 0x0, symName: '__ZNSt3__110__function6__funcIZN11handlegraph20BoolReturningWrapperIZZNK2vg2VG9serializeERNS_13basic_ostreamIcNS_11char_traitsIcEEEEENK3$_2clERKNS2_8handle_tEEUlSE_E_Lb0EE4wrapERKSF_EUlDpOT_E_NS_9allocatorISM_EEFbSE_EE18destroy_deallocateEv', symObjAddr: 0x9C68, symBinAddr: 0x1000177A0, symSize: 0x4 }
  - { offsetInCU: 0x1B3D06, offset: 0x417F70, size: 0x8, addend: 0x0, symName: '__ZNSt3__110__function6__funcIZN11handlegraph20BoolReturningWrapperIZZNK2vg2VG9serializeERNS_13basic_ostreamIcNS_11char_traitsIcEEEEENK3$_2clERKNS2_8handle_tEEUlSE_E_Lb0EE4wrapERKSF_EUlDpOT_E_NS_9allocatorISM_EEFbSE_EE18destroy_deallocateEv', symObjAddr: 0x9C68, symBinAddr: 0x1000177A0, symSize: 0x4 }
  - { offsetInCU: 0x1B3D31, offset: 0x417F9B, size: 0x8, addend: 0x0, symName: '__ZNSt3__110__function6__funcIZN11handlegraph20BoolReturningWrapperIZZNK2vg2VG9serializeERNS_13basic_ostreamIcNS_11char_traitsIcEEEEENK3$_2clERKNS2_8handle_tEEUlSE_E_Lb0EE4wrapERKSF_EUlDpOT_E_NS_9allocatorISM_EEFbSE_EE18destroy_deallocateEv', symObjAddr: 0x9C68, symBinAddr: 0x1000177A0, symSize: 0x4 }
  - { offsetInCU: 0x1B3D57, offset: 0x417FC1, size: 0x8, addend: 0x0, symName: '__ZNSt3__110__function6__funcIZN11handlegraph20BoolReturningWrapperIZZNK2vg2VG9serializeERNS_13basic_ostreamIcNS_11char_traitsIcEEEEENK3$_2clERKNS2_8handle_tEEUlSE_E_Lb0EE4wrapERKSF_EUlDpOT_E_NS_9allocatorISM_EEFbSE_EE18destroy_deallocateEv', symObjAddr: 0x9C68, symBinAddr: 0x1000177A0, symSize: 0x4 }
  - { offsetInCU: 0x1B3F8E, offset: 0x4181F8, size: 0x8, addend: 0x0, symName: '__ZNSt3__110__function6__funcIZN11handlegraph20BoolReturningWrapperIZZNK2vg2VG9serializeERNS_13basic_ostreamIcNS_11char_traitsIcEEEEENK3$_2clERKNS2_8handle_tEEUlSE_E_Lb0EE4wrapERKSF_EUlDpOT_E_NS_9allocatorISM_EEFbSE_EEclESE_', symObjAddr: 0x9C6C, symBinAddr: 0x1000177A4, symSize: 0x124 }
  - { offsetInCU: 0x1B4262, offset: 0x4184CC, size: 0x8, addend: 0x0, symName: '__ZNKSt3__110__function6__funcIZN11handlegraph20BoolReturningWrapperIZZNK2vg2VG9serializeERNS_13basic_ostreamIcNS_11char_traitsIcEEEEENK3$_2clERKNS2_8handle_tEEUlSE_E_Lb0EE4wrapERKSF_EUlDpOT_E_NS_9allocatorISM_EEFbSE_EE6targetERKSt9type_info', symObjAddr: 0x9D90, symBinAddr: 0x1000178C8, symSize: 0x60 }
  - { offsetInCU: 0x1B42E8, offset: 0x418552, size: 0x8, addend: 0x0, symName: '__ZNKSt3__110__function6__funcIZN11handlegraph20BoolReturningWrapperIZZNK2vg2VG9serializeERNS_13basic_ostreamIcNS_11char_traitsIcEEEEENK3$_2clERKNS2_8handle_tEEUlSE_E_Lb0EE4wrapERKSF_EUlDpOT_E_NS_9allocatorISM_EEFbSE_EE11target_typeEv', symObjAddr: 0x9DF0, symBinAddr: 0x100017928, symSize: 0xC }
  - { offsetInCU: 0x1B442C, offset: 0x418696, size: 0x8, addend: 0x0, symName: '__ZNSt3__110__function6__funcIZN11handlegraph20BoolReturningWrapperIZZNK2vg2VG9serializeERNS_13basic_ostreamIcNS_11char_traitsIcEEEEENK3$_2clERKNS2_8handle_tEEUlSE_E0_Lb0EE4wrapERKSF_EUlDpOT_E_NS_9allocatorISM_EEFbSE_EED1Ev', symObjAddr: 0x9E6C, symBinAddr: 0x1000179A4, symSize: 0x4 }
  - { offsetInCU: 0x1B4458, offset: 0x4186C2, size: 0x8, addend: 0x0, symName: '__ZNSt3__110__function6__funcIZN11handlegraph20BoolReturningWrapperIZZNK2vg2VG9serializeERNS_13basic_ostreamIcNS_11char_traitsIcEEEEENK3$_2clERKNS2_8handle_tEEUlSE_E0_Lb0EE4wrapERKSF_EUlDpOT_E_NS_9allocatorISM_EEFbSE_EED0Ev', symObjAddr: 0x9E70, symBinAddr: 0x1000179A8, symSize: 0x4 }
  - { offsetInCU: 0x1B450F, offset: 0x418779, size: 0x8, addend: 0x0, symName: '__ZNKSt3__110__function6__funcIZN11handlegraph20BoolReturningWrapperIZZNK2vg2VG9serializeERNS_13basic_ostreamIcNS_11char_traitsIcEEEEENK3$_2clERKNS2_8handle_tEEUlSE_E0_Lb0EE4wrapERKSF_EUlDpOT_E_NS_9allocatorISM_EEFbSE_EE7__cloneEv', symObjAddr: 0x9E74, symBinAddr: 0x1000179AC, symSize: 0x34 }
  - { offsetInCU: 0x1B4658, offset: 0x4188C2, size: 0x8, addend: 0x0, symName: '__ZNKSt3__110__function6__funcIZN11handlegraph20BoolReturningWrapperIZZNK2vg2VG9serializeERNS_13basic_ostreamIcNS_11char_traitsIcEEEEENK3$_2clERKNS2_8handle_tEEUlSE_E0_Lb0EE4wrapERKSF_EUlDpOT_E_NS_9allocatorISM_EEFbSE_EE7__cloneEPNS0_6__baseISP_EE', symObjAddr: 0x9EA8, symBinAddr: 0x1000179E0, symSize: 0x14 }
  - { offsetInCU: 0x1B46C8, offset: 0x418932, size: 0x8, addend: 0x0, symName: '__ZNSt3__110__function6__funcIZN11handlegraph20BoolReturningWrapperIZZNK2vg2VG9serializeERNS_13basic_ostreamIcNS_11char_traitsIcEEEEENK3$_2clERKNS2_8handle_tEEUlSE_E0_Lb0EE4wrapERKSF_EUlDpOT_E_NS_9allocatorISM_EEFbSE_EE7destroyEv', symObjAddr: 0x9EBC, symBinAddr: 0x1000179F4, symSize: 0x4 }
  - { offsetInCU: 0x1B471B, offset: 0x418985, size: 0x8, addend: 0x0, symName: '__ZNSt3__110__function6__funcIZN11handlegraph20BoolReturningWrapperIZZNK2vg2VG9serializeERNS_13basic_ostreamIcNS_11char_traitsIcEEEEENK3$_2clERKNS2_8handle_tEEUlSE_E0_Lb0EE4wrapERKSF_EUlDpOT_E_NS_9allocatorISM_EEFbSE_EE18destroy_deallocateEv', symObjAddr: 0x9EC0, symBinAddr: 0x1000179F8, symSize: 0x4 }
  - { offsetInCU: 0x1B4751, offset: 0x4189BB, size: 0x8, addend: 0x0, symName: '__ZNSt3__110__function6__funcIZN11handlegraph20BoolReturningWrapperIZZNK2vg2VG9serializeERNS_13basic_ostreamIcNS_11char_traitsIcEEEEENK3$_2clERKNS2_8handle_tEEUlSE_E0_Lb0EE4wrapERKSF_EUlDpOT_E_NS_9allocatorISM_EEFbSE_EE18destroy_deallocateEv', symObjAddr: 0x9EC0, symBinAddr: 0x1000179F8, symSize: 0x4 }
  - { offsetInCU: 0x1B4773, offset: 0x4189DD, size: 0x8, addend: 0x0, symName: '__ZNSt3__110__function6__funcIZN11handlegraph20BoolReturningWrapperIZZNK2vg2VG9serializeERNS_13basic_ostreamIcNS_11char_traitsIcEEEEENK3$_2clERKNS2_8handle_tEEUlSE_E0_Lb0EE4wrapERKSF_EUlDpOT_E_NS_9allocatorISM_EEFbSE_EE18destroy_deallocateEv', symObjAddr: 0x9EC0, symBinAddr: 0x1000179F8, symSize: 0x4 }
  - { offsetInCU: 0x1B479E, offset: 0x418A08, size: 0x8, addend: 0x0, symName: '__ZNSt3__110__function6__funcIZN11handlegraph20BoolReturningWrapperIZZNK2vg2VG9serializeERNS_13basic_ostreamIcNS_11char_traitsIcEEEEENK3$_2clERKNS2_8handle_tEEUlSE_E0_Lb0EE4wrapERKSF_EUlDpOT_E_NS_9allocatorISM_EEFbSE_EE18destroy_deallocateEv', symObjAddr: 0x9EC0, symBinAddr: 0x1000179F8, symSize: 0x4 }
  - { offsetInCU: 0x1B47C4, offset: 0x418A2E, size: 0x8, addend: 0x0, symName: '__ZNSt3__110__function6__funcIZN11handlegraph20BoolReturningWrapperIZZNK2vg2VG9serializeERNS_13basic_ostreamIcNS_11char_traitsIcEEEEENK3$_2clERKNS2_8handle_tEEUlSE_E0_Lb0EE4wrapERKSF_EUlDpOT_E_NS_9allocatorISM_EEFbSE_EE18destroy_deallocateEv', symObjAddr: 0x9EC0, symBinAddr: 0x1000179F8, symSize: 0x4 }
  - { offsetInCU: 0x1B48C3, offset: 0x418B2D, size: 0x8, addend: 0x0, symName: '__ZNSt3__110__function6__funcIZN11handlegraph20BoolReturningWrapperIZZNK2vg2VG9serializeERNS_13basic_ostreamIcNS_11char_traitsIcEEEEENK3$_2clERKNS2_8handle_tEEUlSE_E0_Lb0EE4wrapERKSF_EUlDpOT_E_NS_9allocatorISM_EEFbSE_EEclESE_', symObjAddr: 0x9EC4, symBinAddr: 0x1000179FC, symSize: 0x110 }
  - { offsetInCU: 0x1B4B7F, offset: 0x418DE9, size: 0x8, addend: 0x0, symName: '__ZNKSt3__110__function6__funcIZN11handlegraph20BoolReturningWrapperIZZNK2vg2VG9serializeERNS_13basic_ostreamIcNS_11char_traitsIcEEEEENK3$_2clERKNS2_8handle_tEEUlSE_E0_Lb0EE4wrapERKSF_EUlDpOT_E_NS_9allocatorISM_EEFbSE_EE6targetERKSt9type_info', symObjAddr: 0x9FD4, symBinAddr: 0x100017B0C, symSize: 0x60 }
  - { offsetInCU: 0x1B4C05, offset: 0x418E6F, size: 0x8, addend: 0x0, symName: '__ZNKSt3__110__function6__funcIZN11handlegraph20BoolReturningWrapperIZZNK2vg2VG9serializeERNS_13basic_ostreamIcNS_11char_traitsIcEEEEENK3$_2clERKNS2_8handle_tEEUlSE_E0_Lb0EE4wrapERKSF_EUlDpOT_E_NS_9allocatorISM_EEFbSE_EE11target_typeEv', symObjAddr: 0xA034, symBinAddr: 0x100017B6C, symSize: 0xC }
  - { offsetInCU: 0x1B4C2A, offset: 0x418E94, size: 0x8, addend: 0x0, symName: '__ZNSt3__110__function6__funcIZN11handlegraph20BoolReturningWrapperIZNK2vg2VG9serializeERNS_13basic_ostreamIcNS_11char_traitsIcEEEEE3$_3Lb0EE4wrapERKSB_EUlDpOT_E_NS_9allocatorISI_EEFbRKNS2_13path_handle_tEEED1Ev', symObjAddr: 0xA040, symBinAddr: 0x100017B78, symSize: 0x4 }
  - { offsetInCU: 0x1B4C56, offset: 0x418EC0, size: 0x8, addend: 0x0, symName: '__ZNSt3__110__function6__funcIZN11handlegraph20BoolReturningWrapperIZNK2vg2VG9serializeERNS_13basic_ostreamIcNS_11char_traitsIcEEEEE3$_3Lb0EE4wrapERKSB_EUlDpOT_E_NS_9allocatorISI_EEFbRKNS2_13path_handle_tEEED0Ev', symObjAddr: 0xA044, symBinAddr: 0x100017B7C, symSize: 0x4 }
  - { offsetInCU: 0x1B4D0D, offset: 0x418F77, size: 0x8, addend: 0x0, symName: '__ZNKSt3__110__function6__funcIZN11handlegraph20BoolReturningWrapperIZNK2vg2VG9serializeERNS_13basic_ostreamIcNS_11char_traitsIcEEEEE3$_3Lb0EE4wrapERKSB_EUlDpOT_E_NS_9allocatorISI_EEFbRKNS2_13path_handle_tEEE7__cloneEv', symObjAddr: 0xA048, symBinAddr: 0x100017B80, symSize: 0x34 }
  - { offsetInCU: 0x1B4E56, offset: 0x4190C0, size: 0x8, addend: 0x0, symName: '__ZNKSt3__110__function6__funcIZN11handlegraph20BoolReturningWrapperIZNK2vg2VG9serializeERNS_13basic_ostreamIcNS_11char_traitsIcEEEEE3$_3Lb0EE4wrapERKSB_EUlDpOT_E_NS_9allocatorISI_EEFbRKNS2_13path_handle_tEEE7__cloneEPNS0_6__baseISO_EE', symObjAddr: 0xA07C, symBinAddr: 0x100017BB4, symSize: 0x14 }
  - { offsetInCU: 0x1B4EC6, offset: 0x419130, size: 0x8, addend: 0x0, symName: '__ZNSt3__110__function6__funcIZN11handlegraph20BoolReturningWrapperIZNK2vg2VG9serializeERNS_13basic_ostreamIcNS_11char_traitsIcEEEEE3$_3Lb0EE4wrapERKSB_EUlDpOT_E_NS_9allocatorISI_EEFbRKNS2_13path_handle_tEEE7destroyEv', symObjAddr: 0xA090, symBinAddr: 0x100017BC8, symSize: 0x4 }
  - { offsetInCU: 0x1B4F19, offset: 0x419183, size: 0x8, addend: 0x0, symName: '__ZNSt3__110__function6__funcIZN11handlegraph20BoolReturningWrapperIZNK2vg2VG9serializeERNS_13basic_ostreamIcNS_11char_traitsIcEEEEE3$_3Lb0EE4wrapERKSB_EUlDpOT_E_NS_9allocatorISI_EEFbRKNS2_13path_handle_tEEE18destroy_deallocateEv', symObjAddr: 0xA094, symBinAddr: 0x100017BCC, symSize: 0x4 }
  - { offsetInCU: 0x1B4F4F, offset: 0x4191B9, size: 0x8, addend: 0x0, symName: '__ZNSt3__110__function6__funcIZN11handlegraph20BoolReturningWrapperIZNK2vg2VG9serializeERNS_13basic_ostreamIcNS_11char_traitsIcEEEEE3$_3Lb0EE4wrapERKSB_EUlDpOT_E_NS_9allocatorISI_EEFbRKNS2_13path_handle_tEEE18destroy_deallocateEv', symObjAddr: 0xA094, symBinAddr: 0x100017BCC, symSize: 0x4 }
  - { offsetInCU: 0x1B4F71, offset: 0x4191DB, size: 0x8, addend: 0x0, symName: '__ZNSt3__110__function6__funcIZN11handlegraph20BoolReturningWrapperIZNK2vg2VG9serializeERNS_13basic_ostreamIcNS_11char_traitsIcEEEEE3$_3Lb0EE4wrapERKSB_EUlDpOT_E_NS_9allocatorISI_EEFbRKNS2_13path_handle_tEEE18destroy_deallocateEv', symObjAddr: 0xA094, symBinAddr: 0x100017BCC, symSize: 0x4 }
  - { offsetInCU: 0x1B4F9C, offset: 0x419206, size: 0x8, addend: 0x0, symName: '__ZNSt3__110__function6__funcIZN11handlegraph20BoolReturningWrapperIZNK2vg2VG9serializeERNS_13basic_ostreamIcNS_11char_traitsIcEEEEE3$_3Lb0EE4wrapERKSB_EUlDpOT_E_NS_9allocatorISI_EEFbRKNS2_13path_handle_tEEE18destroy_deallocateEv', symObjAddr: 0xA094, symBinAddr: 0x100017BCC, symSize: 0x4 }
  - { offsetInCU: 0x1B4FC2, offset: 0x41922C, size: 0x8, addend: 0x0, symName: '__ZNSt3__110__function6__funcIZN11handlegraph20BoolReturningWrapperIZNK2vg2VG9serializeERNS_13basic_ostreamIcNS_11char_traitsIcEEEEE3$_3Lb0EE4wrapERKSB_EUlDpOT_E_NS_9allocatorISI_EEFbRKNS2_13path_handle_tEEE18destroy_deallocateEv', symObjAddr: 0xA094, symBinAddr: 0x100017BCC, symSize: 0x4 }
  - { offsetInCU: 0x1B5596, offset: 0x419800, size: 0x8, addend: 0x0, symName: '__ZNSt3__110__function6__funcIZN11handlegraph20BoolReturningWrapperIZNK2vg2VG9serializeERNS_13basic_ostreamIcNS_11char_traitsIcEEEEE3$_3Lb0EE4wrapERKSB_EUlDpOT_E_NS_9allocatorISI_EEFbRKNS2_13path_handle_tEEEclESN_', symObjAddr: 0xA098, symBinAddr: 0x100017BD0, symSize: 0x354 }
  - { offsetInCU: 0x1B5F96, offset: 0x41A200, size: 0x8, addend: 0x0, symName: '__ZNKSt3__110__function6__funcIZN11handlegraph20BoolReturningWrapperIZNK2vg2VG9serializeERNS_13basic_ostreamIcNS_11char_traitsIcEEEEE3$_3Lb0EE4wrapERKSB_EUlDpOT_E_NS_9allocatorISI_EEFbRKNS2_13path_handle_tEEE6targetERKSt9type_info', symObjAddr: 0xA3EC, symBinAddr: 0x100017F24, symSize: 0x60 }
  - { offsetInCU: 0x1B601C, offset: 0x41A286, size: 0x8, addend: 0x0, symName: '__ZNKSt3__110__function6__funcIZN11handlegraph20BoolReturningWrapperIZNK2vg2VG9serializeERNS_13basic_ostreamIcNS_11char_traitsIcEEEEE3$_3Lb0EE4wrapERKSB_EUlDpOT_E_NS_9allocatorISI_EEFbRKNS2_13path_handle_tEEE11target_typeEv', symObjAddr: 0xA44C, symBinAddr: 0x100017F84, symSize: 0xC }
  - { offsetInCU: 0x1B65D7, offset: 0x41A841, size: 0x8, addend: 0x0, symName: __ZNK3spp16sparse_hashtableINSt3__14pairIKxPN2vg4NodeEEExNS4_9wang_hashIxvEENS_15sparse_hash_mapIxS6_S9_NS1_8equal_toIxEENS_14libc_allocatorIS7_EEE9SelectKeyENSF_6SetKeyESC_SE_E4findERS3_.cold.1, symObjAddr: 0x5CE44, symBinAddr: 0x10002A140, symSize: 0x24 }
  - { offsetInCU: 0x1B68CB, offset: 0x41AB35, size: 0x8, addend: 0x0, symName: __ZNK3spp16sparse_hashtableINSt3__14pairIKxNS1_6vectorINS2_IxbEENS1_9allocatorIS5_EEEEEExN2vg9wang_hashIxvEENS_15sparse_hash_mapIxS8_SC_NS1_8equal_toIxEENS_14libc_allocatorIS9_EEE9SelectKeyENSI_6SetKeyESF_SH_E4findERS3_.cold.1, symObjAddr: 0x5CE68, symBinAddr: 0x10002A164, symSize: 0x24 }
  - { offsetInCU: 0x1B69D6, offset: 0x41AC40, size: 0x8, addend: 0x0, symName: _.omp_outlined., symObjAddr: 0xAADC, symBinAddr: 0x1000184BC, symSize: 0x1A4 }
  - { offsetInCU: 0x1B6D87, offset: 0x41AFF1, size: 0x8, addend: 0x0, symName: __ZNK6google8protobuf8internal20RepeatedPtrFieldBase3GetINS0_16RepeatedPtrFieldIN2vg4NodeEE11TypeHandlerEEERKNT_4TypeEi.cold.1, symObjAddr: 0x5CE8C, symBinAddr: 0x10002A188, symSize: 0x3C }
  - { offsetInCU: 0x1B6DDE, offset: 0x41B048, size: 0x8, addend: 0x0, symName: __ZNK6google8protobuf8internal20RepeatedPtrFieldBase3GetINS0_16RepeatedPtrFieldIN2vg4NodeEE11TypeHandlerEEERKNT_4TypeEi.cold.3, symObjAddr: 0x5CF04, symBinAddr: 0x10002A200, symSize: 0x40 }
  - { offsetInCU: 0x1B6E35, offset: 0x41B09F, size: 0x8, addend: 0x0, symName: __ZNK6google8protobuf8internal20RepeatedPtrFieldBase3GetINS0_16RepeatedPtrFieldIN2vg4NodeEE11TypeHandlerEEERKNT_4TypeEi.cold.2, symObjAddr: 0x5CEC8, symBinAddr: 0x10002A1C4, symSize: 0x3C }
  - { offsetInCU: 0x1B702F, offset: 0x41B299, size: 0x8, addend: 0x0, symName: '__ZNSt3__110__function6__funcIZNK2vg2VG25for_each_path_handle_implERKNS_8functionIFbRKN11handlegraph13path_handle_tEEEEE3$_4NS_9allocatorISD_EEFbRKNS_12basic_stringIcNS_11char_traitsIcEENSE_IcEEEEEED1Ev', symObjAddr: 0xB228, symBinAddr: 0x1000186D0, symSize: 0x4 }
  - { offsetInCU: 0x1B705B, offset: 0x41B2C5, size: 0x8, addend: 0x0, symName: '__ZNSt3__110__function6__funcIZNK2vg2VG25for_each_path_handle_implERKNS_8functionIFbRKN11handlegraph13path_handle_tEEEEE3$_4NS_9allocatorISD_EEFbRKNS_12basic_stringIcNS_11char_traitsIcEENSE_IcEEEEEED0Ev', symObjAddr: 0xB22C, symBinAddr: 0x1000186D4, symSize: 0x4 }
  - { offsetInCU: 0x1B726B, offset: 0x41B4D5, size: 0x8, addend: 0x0, symName: '__ZNKSt3__110__function6__funcIZNK2vg2VG25for_each_path_handle_implERKNS_8functionIFbRKN11handlegraph13path_handle_tEEEEE3$_4NS_9allocatorISD_EEFbRKNS_12basic_stringIcNS_11char_traitsIcEENSE_IcEEEEEE7__cloneEv', symObjAddr: 0xB230, symBinAddr: 0x1000186D8, symSize: 0x38 }
  - { offsetInCU: 0x1B7596, offset: 0x41B800, size: 0x8, addend: 0x0, symName: '__ZNKSt3__110__function6__funcIZNK2vg2VG25for_each_path_handle_implERKNS_8functionIFbRKN11handlegraph13path_handle_tEEEEE3$_4NS_9allocatorISD_EEFbRKNS_12basic_stringIcNS_11char_traitsIcEENSE_IcEEEEEE7__cloneEPNS0_6__baseISN_EE', symObjAddr: 0xB268, symBinAddr: 0x100018710, symSize: 0x18 }
  - { offsetInCU: 0x1B75CF, offset: 0x41B839, size: 0x8, addend: 0x0, symName: '__ZNKSt3__110__function6__funcIZNK2vg2VG25for_each_path_handle_implERKNS_8functionIFbRKN11handlegraph13path_handle_tEEEEE3$_4NS_9allocatorISD_EEFbRKNS_12basic_stringIcNS_11char_traitsIcEENSE_IcEEEEEE7__cloneEPNS0_6__baseISN_EE', symObjAddr: 0xB268, symBinAddr: 0x100018710, symSize: 0x18 }
  - { offsetInCU: 0x1B75F4, offset: 0x41B85E, size: 0x8, addend: 0x0, symName: '__ZNKSt3__110__function6__funcIZNK2vg2VG25for_each_path_handle_implERKNS_8functionIFbRKN11handlegraph13path_handle_tEEEEE3$_4NS_9allocatorISD_EEFbRKNS_12basic_stringIcNS_11char_traitsIcEENSE_IcEEEEEE7__cloneEPNS0_6__baseISN_EE', symObjAddr: 0xB268, symBinAddr: 0x100018710, symSize: 0x18 }
  - { offsetInCU: 0x1B76DC, offset: 0x41B946, size: 0x8, addend: 0x0, symName: '__ZNSt3__110__function6__funcIZNK2vg2VG25for_each_path_handle_implERKNS_8functionIFbRKN11handlegraph13path_handle_tEEEEE3$_4NS_9allocatorISD_EEFbRKNS_12basic_stringIcNS_11char_traitsIcEENSE_IcEEEEEE7destroyEv', symObjAddr: 0xB280, symBinAddr: 0x100018728, symSize: 0x4 }
  - { offsetInCU: 0x1B772F, offset: 0x41B999, size: 0x8, addend: 0x0, symName: '__ZNSt3__110__function6__funcIZNK2vg2VG25for_each_path_handle_implERKNS_8functionIFbRKN11handlegraph13path_handle_tEEEEE3$_4NS_9allocatorISD_EEFbRKNS_12basic_stringIcNS_11char_traitsIcEENSE_IcEEEEEE18destroy_deallocateEv', symObjAddr: 0xB284, symBinAddr: 0x10001872C, symSize: 0x4 }
  - { offsetInCU: 0x1B7765, offset: 0x41B9CF, size: 0x8, addend: 0x0, symName: '__ZNSt3__110__function6__funcIZNK2vg2VG25for_each_path_handle_implERKNS_8functionIFbRKN11handlegraph13path_handle_tEEEEE3$_4NS_9allocatorISD_EEFbRKNS_12basic_stringIcNS_11char_traitsIcEENSE_IcEEEEEE18destroy_deallocateEv', symObjAddr: 0xB284, symBinAddr: 0x10001872C, symSize: 0x4 }
  - { offsetInCU: 0x1B7787, offset: 0x41B9F1, size: 0x8, addend: 0x0, symName: '__ZNSt3__110__function6__funcIZNK2vg2VG25for_each_path_handle_implERKNS_8functionIFbRKN11handlegraph13path_handle_tEEEEE3$_4NS_9allocatorISD_EEFbRKNS_12basic_stringIcNS_11char_traitsIcEENSE_IcEEEEEE18destroy_deallocateEv', symObjAddr: 0xB284, symBinAddr: 0x10001872C, symSize: 0x4 }
  - { offsetInCU: 0x1B77B2, offset: 0x41BA1C, size: 0x8, addend: 0x0, symName: '__ZNSt3__110__function6__funcIZNK2vg2VG25for_each_path_handle_implERKNS_8functionIFbRKN11handlegraph13path_handle_tEEEEE3$_4NS_9allocatorISD_EEFbRKNS_12basic_stringIcNS_11char_traitsIcEENSE_IcEEEEEE18destroy_deallocateEv', symObjAddr: 0xB284, symBinAddr: 0x10001872C, symSize: 0x4 }
  - { offsetInCU: 0x1B77D8, offset: 0x41BA42, size: 0x8, addend: 0x0, symName: '__ZNSt3__110__function6__funcIZNK2vg2VG25for_each_path_handle_implERKNS_8functionIFbRKN11handlegraph13path_handle_tEEEEE3$_4NS_9allocatorISD_EEFbRKNS_12basic_stringIcNS_11char_traitsIcEENSE_IcEEEEEE18destroy_deallocateEv', symObjAddr: 0xB284, symBinAddr: 0x10001872C, symSize: 0x4 }
  - { offsetInCU: 0x1B78D2, offset: 0x41BB3C, size: 0x8, addend: 0x0, symName: '__ZNSt3__110__function6__funcIZNK2vg2VG25for_each_path_handle_implERKNS_8functionIFbRKN11handlegraph13path_handle_tEEEEE3$_4NS_9allocatorISD_EEFbRKNS_12basic_stringIcNS_11char_traitsIcEENSE_IcEEEEEEclESM_', symObjAddr: 0xB288, symBinAddr: 0x100018730, symSize: 0x7C }
  - { offsetInCU: 0x1B79DE, offset: 0x41BC48, size: 0x8, addend: 0x0, symName: '__ZNKSt3__110__function6__funcIZNK2vg2VG25for_each_path_handle_implERKNS_8functionIFbRKN11handlegraph13path_handle_tEEEEE3$_4NS_9allocatorISD_EEFbRKNS_12basic_stringIcNS_11char_traitsIcEENSE_IcEEEEEE6targetERKSt9type_info', symObjAddr: 0xB304, symBinAddr: 0x1000187AC, symSize: 0x60 }
  - { offsetInCU: 0x1B7A64, offset: 0x41BCCE, size: 0x8, addend: 0x0, symName: '__ZNKSt3__110__function6__funcIZNK2vg2VG25for_each_path_handle_implERKNS_8functionIFbRKN11handlegraph13path_handle_tEEEEE3$_4NS_9allocatorISD_EEFbRKNS_12basic_stringIcNS_11char_traitsIcEENSE_IcEEEEEE11target_typeEv', symObjAddr: 0xB364, symBinAddr: 0x10001880C, symSize: 0xC }
  - { offsetInCU: 0x1B7C7B, offset: 0x41BEE5, size: 0x8, addend: 0x0, symName: __ZNK3spp16sparse_hashtableINSt3__14pairIKPKN2vg9mapping_tENS2_INS1_15__list_iteratorIS4_PvEExEEEES6_NS3_9wang_hashIS6_vEENS_15sparse_hash_mapIS6_SB_SE_NS1_8equal_toIS6_EENS_14libc_allocatorISC_EEE9SelectKeyENSK_6SetKeyESH_SJ_E4findERS7_, symObjAddr: 0xB57C, symBinAddr: 0x10001896C, symSize: 0x1D8 }
  - { offsetInCU: 0x1B84A7, offset: 0x41C711, size: 0x8, addend: 0x0, symName: __ZNK3spp16sparse_hashtableINSt3__14pairIKPKN2vg9mapping_tENS2_INS1_15__list_iteratorIS4_PvEExEEEES6_NS3_9wang_hashIS6_vEENS_15sparse_hash_mapIS6_SB_SE_NS1_8equal_toIS6_EENS_14libc_allocatorISC_EEE9SelectKeyENSK_6SetKeyESH_SJ_E4findERS7_.cold.1, symObjAddr: 0x5CF44, symBinAddr: 0x10002A240, symSize: 0x24 }
  - { offsetInCU: 0x1B866D, offset: 0x41C8D7, size: 0x8, addend: 0x0, symName: __ZNSt3__16__treeIPN2vg9mapping_tENS_4lessIS3_EENS_9allocatorIS3_EEE12__find_equalIS3_EERPNS_16__tree_node_baseIPvEENS_21__tree_const_iteratorIS3_PNS_11__tree_nodeIS3_SB_EElEERPNS_15__tree_end_nodeISD_EESE_RKT_, symObjAddr: 0xB8B0, symBinAddr: 0x100018C50, symSize: 0x1A8 }
  - { offsetInCU: 0x1B86B0, offset: 0x41C91A, size: 0x8, addend: 0x0, symName: __ZNSt3__16__treeIPN2vg9mapping_tENS_4lessIS3_EENS_9allocatorIS3_EEE12__find_equalIS3_EERPNS_16__tree_node_baseIPvEENS_21__tree_const_iteratorIS3_PNS_11__tree_nodeIS3_SB_EElEERPNS_15__tree_end_nodeISD_EESE_RKT_, symObjAddr: 0xB8B0, symBinAddr: 0x100018C50, symSize: 0x1A8 }
  - { offsetInCU: 0x1B86CC, offset: 0x41C936, size: 0x8, addend: 0x0, symName: __ZNSt3__16__treeIPN2vg9mapping_tENS_4lessIS3_EENS_9allocatorIS3_EEE12__find_equalIS3_EERPNS_16__tree_node_baseIPvEENS_21__tree_const_iteratorIS3_PNS_11__tree_nodeIS3_SB_EElEERPNS_15__tree_end_nodeISD_EESE_RKT_, symObjAddr: 0xB8B0, symBinAddr: 0x100018C50, symSize: 0x1A8 }
  - { offsetInCU: 0x1B89F3, offset: 0x41CC5D, size: 0x8, addend: 0x0, symName: __ZN2vg2VG11create_nodeERKNSt3__112basic_stringIcNS1_11char_traitsIcEENS1_9allocatorIcEEEE, symObjAddr: 0xBC0C, symBinAddr: 0x100018DF8, symSize: 0x50 }
  - { offsetInCU: 0x1B8A33, offset: 0x41CC9D, size: 0x8, addend: 0x0, symName: __ZN2vg2VG11create_nodeERKNSt3__112basic_stringIcNS1_11char_traitsIcEENS1_9allocatorIcEEEEx, symObjAddr: 0xBC5C, symBinAddr: 0x100018E48, symSize: 0xA0 }
  - { offsetInCU: 0x1B8A7C, offset: 0x41CCE6, size: 0x8, addend: 0x0, symName: __ZN2vg2VG11create_nodeERKNSt3__112basic_stringIcNS1_11char_traitsIcEENS1_9allocatorIcEEEEx.cold.1, symObjAddr: 0x5CF68, symBinAddr: 0x10002A264, symSize: 0x28 }
  - { offsetInCU: 0x1B8A94, offset: 0x41CCFE, size: 0x8, addend: 0x0, symName: '__ZNSt3__110__function6__funcIZN11handlegraph20BoolReturningWrapperIZN2vg2VG14destroy_handleERKNS2_8handle_tEE3$_5Lb0EE4wrapERKS9_EUlDpOT_E_NS_9allocatorISG_EEFbRKNS2_13step_handle_tEEED1Ev', symObjAddr: 0xBD6C, symBinAddr: 0x100018EE8, symSize: 0x4 }
  - { offsetInCU: 0x1B8AC0, offset: 0x41CD2A, size: 0x8, addend: 0x0, symName: '__ZNSt3__110__function6__funcIZN11handlegraph20BoolReturningWrapperIZN2vg2VG14destroy_handleERKNS2_8handle_tEE3$_5Lb0EE4wrapERKS9_EUlDpOT_E_NS_9allocatorISG_EEFbRKNS2_13step_handle_tEEED0Ev', symObjAddr: 0xBD70, symBinAddr: 0x100018EEC, symSize: 0x4 }
  - { offsetInCU: 0x1B8B77, offset: 0x41CDE1, size: 0x8, addend: 0x0, symName: '__ZNKSt3__110__function6__funcIZN11handlegraph20BoolReturningWrapperIZN2vg2VG14destroy_handleERKNS2_8handle_tEE3$_5Lb0EE4wrapERKS9_EUlDpOT_E_NS_9allocatorISG_EEFbRKNS2_13step_handle_tEEE7__cloneEv', symObjAddr: 0xBD74, symBinAddr: 0x100018EF0, symSize: 0x34 }
  - { offsetInCU: 0x1B8CC0, offset: 0x41CF2A, size: 0x8, addend: 0x0, symName: '__ZNKSt3__110__function6__funcIZN11handlegraph20BoolReturningWrapperIZN2vg2VG14destroy_handleERKNS2_8handle_tEE3$_5Lb0EE4wrapERKS9_EUlDpOT_E_NS_9allocatorISG_EEFbRKNS2_13step_handle_tEEE7__cloneEPNS0_6__baseISM_EE', symObjAddr: 0xBDA8, symBinAddr: 0x100018F24, symSize: 0x14 }
  - { offsetInCU: 0x1B8D30, offset: 0x41CF9A, size: 0x8, addend: 0x0, symName: '__ZNSt3__110__function6__funcIZN11handlegraph20BoolReturningWrapperIZN2vg2VG14destroy_handleERKNS2_8handle_tEE3$_5Lb0EE4wrapERKS9_EUlDpOT_E_NS_9allocatorISG_EEFbRKNS2_13step_handle_tEEE7destroyEv', symObjAddr: 0xBDBC, symBinAddr: 0x100018F38, symSize: 0x4 }
  - { offsetInCU: 0x1B8D83, offset: 0x41CFED, size: 0x8, addend: 0x0, symName: '__ZNSt3__110__function6__funcIZN11handlegraph20BoolReturningWrapperIZN2vg2VG14destroy_handleERKNS2_8handle_tEE3$_5Lb0EE4wrapERKS9_EUlDpOT_E_NS_9allocatorISG_EEFbRKNS2_13step_handle_tEEE18destroy_deallocateEv', symObjAddr: 0xBDC0, symBinAddr: 0x100018F3C, symSize: 0x4 }
  - { offsetInCU: 0x1B8DB9, offset: 0x41D023, size: 0x8, addend: 0x0, symName: '__ZNSt3__110__function6__funcIZN11handlegraph20BoolReturningWrapperIZN2vg2VG14destroy_handleERKNS2_8handle_tEE3$_5Lb0EE4wrapERKS9_EUlDpOT_E_NS_9allocatorISG_EEFbRKNS2_13step_handle_tEEE18destroy_deallocateEv', symObjAddr: 0xBDC0, symBinAddr: 0x100018F3C, symSize: 0x4 }
  - { offsetInCU: 0x1B8DDB, offset: 0x41D045, size: 0x8, addend: 0x0, symName: '__ZNSt3__110__function6__funcIZN11handlegraph20BoolReturningWrapperIZN2vg2VG14destroy_handleERKNS2_8handle_tEE3$_5Lb0EE4wrapERKS9_EUlDpOT_E_NS_9allocatorISG_EEFbRKNS2_13step_handle_tEEE18destroy_deallocateEv', symObjAddr: 0xBDC0, symBinAddr: 0x100018F3C, symSize: 0x4 }
  - { offsetInCU: 0x1B8E06, offset: 0x41D070, size: 0x8, addend: 0x0, symName: '__ZNSt3__110__function6__funcIZN11handlegraph20BoolReturningWrapperIZN2vg2VG14destroy_handleERKNS2_8handle_tEE3$_5Lb0EE4wrapERKS9_EUlDpOT_E_NS_9allocatorISG_EEFbRKNS2_13step_handle_tEEE18destroy_deallocateEv', symObjAddr: 0xBDC0, symBinAddr: 0x100018F3C, symSize: 0x4 }
  - { offsetInCU: 0x1B8E2C, offset: 0x41D096, size: 0x8, addend: 0x0, symName: '__ZNSt3__110__function6__funcIZN11handlegraph20BoolReturningWrapperIZN2vg2VG14destroy_handleERKNS2_8handle_tEE3$_5Lb0EE4wrapERKS9_EUlDpOT_E_NS_9allocatorISG_EEFbRKNS2_13step_handle_tEEE18destroy_deallocateEv', symObjAddr: 0xBDC0, symBinAddr: 0x100018F3C, symSize: 0x4 }
  - { offsetInCU: 0x1B8F55, offset: 0x41D1BF, size: 0x8, addend: 0x0, symName: '__ZNSt3__110__function6__funcIZN11handlegraph20BoolReturningWrapperIZN2vg2VG14destroy_handleERKNS2_8handle_tEE3$_5Lb0EE4wrapERKS9_EUlDpOT_E_NS_9allocatorISG_EEFbRKNS2_13step_handle_tEEEclESL_', symObjAddr: 0xBDC4, symBinAddr: 0x100018F40, symSize: 0x78 }
  - { offsetInCU: 0x1B90AC, offset: 0x41D316, size: 0x8, addend: 0x0, symName: __ZNSt3__112__hash_tableIN11handlegraph13path_handle_tENS_4hashIS2_EENS_8equal_toIS2_EENS_9allocatorIS2_EEE25__emplace_unique_key_argsIS2_JS2_EEENS_4pairINS_15__hash_iteratorIPNS_11__hash_nodeIS2_PvEEEEbEERKT_DpOT0_, symObjAddr: 0xBEA8, symBinAddr: 0x100019024, symSize: 0x310 }
  - { offsetInCU: 0x1B96EF, offset: 0x41D959, size: 0x8, addend: 0x0, symName: '__ZNKSt3__110__function6__funcIZN11handlegraph20BoolReturningWrapperIZN2vg2VG14destroy_handleERKNS2_8handle_tEE3$_5Lb0EE4wrapERKS9_EUlDpOT_E_NS_9allocatorISG_EEFbRKNS2_13step_handle_tEEE6targetERKSt9type_info', symObjAddr: 0xBE3C, symBinAddr: 0x100018FB8, symSize: 0x60 }
  - { offsetInCU: 0x1B9775, offset: 0x41D9DF, size: 0x8, addend: 0x0, symName: '__ZNKSt3__110__function6__funcIZN11handlegraph20BoolReturningWrapperIZN2vg2VG14destroy_handleERKNS2_8handle_tEE3$_5Lb0EE4wrapERKS9_EUlDpOT_E_NS_9allocatorISG_EEFbRKNS2_13step_handle_tEEE11target_typeEv', symObjAddr: 0xBE9C, symBinAddr: 0x100019018, symSize: 0xC }
  - { offsetInCU: 0x1B9D3B, offset: 0x41DFA5, size: 0x8, addend: 0x0, symName: __ZN2vg2VG11create_edgeEPNS_4NodeES2_bb, symObjAddr: 0xC364, symBinAddr: 0x100019334, symSize: 0xC }
  - { offsetInCU: 0x1B9DC1, offset: 0x41E02B, size: 0x8, addend: 0x0, symName: __ZN2vg2VG11create_edgeEPNS_4NodeES2_bb, symObjAddr: 0xC364, symBinAddr: 0x100019334, symSize: 0xC }
  - { offsetInCU: 0x1B9E0E, offset: 0x41E078, size: 0x8, addend: 0x0, symName: __ZN2vg2VG11create_edgeEPNS_4NodeES2_bb, symObjAddr: 0xC364, symBinAddr: 0x100019334, symSize: 0xC }
  - { offsetInCU: 0x1B9E2A, offset: 0x41E094, size: 0x8, addend: 0x0, symName: __ZN2vg2VG11create_edgeEPNS_4NodeES2_bb, symObjAddr: 0xC364, symBinAddr: 0x100019334, symSize: 0xC }
  - { offsetInCU: 0x1B9E82, offset: 0x41E0EC, size: 0x8, addend: 0x0, symName: __ZN2vg2VG8get_nodeEx, symObjAddr: 0xC370, symBinAddr: 0x100019340, symSize: 0x218 }
  - { offsetInCU: 0x1B9FCD, offset: 0x41E237, size: 0x8, addend: 0x0, symName: __ZN3spp16sparse_hashtableINSt3__14pairIKxPN2vg4NodeEEExNS4_9wang_hashIxvEENS_15sparse_hash_mapIxS6_S9_NS1_8equal_toIxEENS_14libc_allocatorIS7_EEE9SelectKeyENSF_6SetKeyESC_SE_E4findERS3_, symObjAddr: 0x2DC30, symBinAddr: 0x100024668, symSize: 0x1EC }
  - { offsetInCU: 0x1BA5A9, offset: 0x41E813, size: 0x8, addend: 0x0, symName: __ZN2vg2VG26unindex_edge_by_node_sidesEPNS_4EdgeE, symObjAddr: 0x25E54, symBinAddr: 0x1000215F4, symSize: 0x388 }
  - { offsetInCU: 0x1BAF9E, offset: 0x41F208, size: 0x8, addend: 0x0, symName: __ZN3spp16sparse_hashtableINSt3__14pairIKPN2vg4EdgeEiEES5_NS3_9wang_hashIS5_vEENS_15sparse_hash_mapIS5_iS9_NS1_8equal_toIS5_EENS_14libc_allocatorIS7_EEE9SelectKeyENSF_6SetKeyESC_SE_E5eraseERS6_, symObjAddr: 0x37034, symBinAddr: 0x100024E9C, symSize: 0x148 }
  - { offsetInCU: 0x1BB37A, offset: 0x41F5E4, size: 0x8, addend: 0x0, symName: __ZN3spp11sparsetableINSt3__14pairIKPN2vg4EdgeEiEENS_14libc_allocatorIS7_EEE6GrpPos5eraseERSA_, symObjAddr: 0x3717C, symBinAddr: 0x100024FE4, symSize: 0xCC }
  - { offsetInCU: 0x1BB385, offset: 0x41F5EF, size: 0x8, addend: 0x0, symName: __ZN6google8protobuf8internal20RepeatedPtrFieldBase22UnsafeArenaReleaseLastINS0_16RepeatedPtrFieldIN2vg4EdgeEE11TypeHandlerEEEPNT_4TypeEv, symObjAddr: 0x37318, symBinAddr: 0x100025180, symSize: 0x88 }
  - { offsetInCU: 0x1BB533, offset: 0x41F79D, size: 0x8, addend: 0x0, symName: '__ZNSt3__110__function6__funcIZN11handlegraph20BoolReturningWrapperIZN2vg2VG17apply_orientationERKNS2_8handle_tEE3$_6Lb0EE4wrapERKS9_EUlDpOT_E_NS_9allocatorISG_EEFbS8_EED1Ev', symObjAddr: 0xC960, symBinAddr: 0x100019694, symSize: 0x4 }
  - { offsetInCU: 0x1BB55F, offset: 0x41F7C9, size: 0x8, addend: 0x0, symName: '__ZNSt3__110__function6__funcIZN11handlegraph20BoolReturningWrapperIZN2vg2VG17apply_orientationERKNS2_8handle_tEE3$_6Lb0EE4wrapERKS9_EUlDpOT_E_NS_9allocatorISG_EEFbS8_EED0Ev', symObjAddr: 0xC964, symBinAddr: 0x100019698, symSize: 0x4 }
  - { offsetInCU: 0x1BB616, offset: 0x41F880, size: 0x8, addend: 0x0, symName: '__ZNKSt3__110__function6__funcIZN11handlegraph20BoolReturningWrapperIZN2vg2VG17apply_orientationERKNS2_8handle_tEE3$_6Lb0EE4wrapERKS9_EUlDpOT_E_NS_9allocatorISG_EEFbS8_EE7__cloneEv', symObjAddr: 0xC968, symBinAddr: 0x10001969C, symSize: 0x34 }
  - { offsetInCU: 0x1BB75F, offset: 0x41F9C9, size: 0x8, addend: 0x0, symName: '__ZNKSt3__110__function6__funcIZN11handlegraph20BoolReturningWrapperIZN2vg2VG17apply_orientationERKNS2_8handle_tEE3$_6Lb0EE4wrapERKS9_EUlDpOT_E_NS_9allocatorISG_EEFbS8_EE7__cloneEPNS0_6__baseISJ_EE', symObjAddr: 0xC99C, symBinAddr: 0x1000196D0, symSize: 0x14 }
  - { offsetInCU: 0x1BB7CF, offset: 0x41FA39, size: 0x8, addend: 0x0, symName: '__ZNSt3__110__function6__funcIZN11handlegraph20BoolReturningWrapperIZN2vg2VG17apply_orientationERKNS2_8handle_tEE3$_6Lb0EE4wrapERKS9_EUlDpOT_E_NS_9allocatorISG_EEFbS8_EE7destroyEv', symObjAddr: 0xC9B0, symBinAddr: 0x1000196E4, symSize: 0x4 }
  - { offsetInCU: 0x1BB822, offset: 0x41FA8C, size: 0x8, addend: 0x0, symName: '__ZNSt3__110__function6__funcIZN11handlegraph20BoolReturningWrapperIZN2vg2VG17apply_orientationERKNS2_8handle_tEE3$_6Lb0EE4wrapERKS9_EUlDpOT_E_NS_9allocatorISG_EEFbS8_EE18destroy_deallocateEv', symObjAddr: 0xC9B4, symBinAddr: 0x1000196E8, symSize: 0x4 }
  - { offsetInCU: 0x1BB858, offset: 0x41FAC2, size: 0x8, addend: 0x0, symName: '__ZNSt3__110__function6__funcIZN11handlegraph20BoolReturningWrapperIZN2vg2VG17apply_orientationERKNS2_8handle_tEE3$_6Lb0EE4wrapERKS9_EUlDpOT_E_NS_9allocatorISG_EEFbS8_EE18destroy_deallocateEv', symObjAddr: 0xC9B4, symBinAddr: 0x1000196E8, symSize: 0x4 }
  - { offsetInCU: 0x1BB87A, offset: 0x41FAE4, size: 0x8, addend: 0x0, symName: '__ZNSt3__110__function6__funcIZN11handlegraph20BoolReturningWrapperIZN2vg2VG17apply_orientationERKNS2_8handle_tEE3$_6Lb0EE4wrapERKS9_EUlDpOT_E_NS_9allocatorISG_EEFbS8_EE18destroy_deallocateEv', symObjAddr: 0xC9B4, symBinAddr: 0x1000196E8, symSize: 0x4 }
  - { offsetInCU: 0x1BB8A5, offset: 0x41FB0F, size: 0x8, addend: 0x0, symName: '__ZNSt3__110__function6__funcIZN11handlegraph20BoolReturningWrapperIZN2vg2VG17apply_orientationERKNS2_8handle_tEE3$_6Lb0EE4wrapERKS9_EUlDpOT_E_NS_9allocatorISG_EEFbS8_EE18destroy_deallocateEv', symObjAddr: 0xC9B4, symBinAddr: 0x1000196E8, symSize: 0x4 }
  - { offsetInCU: 0x1BB8CB, offset: 0x41FB35, size: 0x8, addend: 0x0, symName: '__ZNSt3__110__function6__funcIZN11handlegraph20BoolReturningWrapperIZN2vg2VG17apply_orientationERKNS2_8handle_tEE3$_6Lb0EE4wrapERKS9_EUlDpOT_E_NS_9allocatorISG_EEFbS8_EE18destroy_deallocateEv', symObjAddr: 0xC9B4, symBinAddr: 0x1000196E8, symSize: 0x4 }
  - { offsetInCU: 0x1BBAD1, offset: 0x41FD3B, size: 0x8, addend: 0x0, symName: '__ZNSt3__110__function6__funcIZN11handlegraph20BoolReturningWrapperIZN2vg2VG17apply_orientationERKNS2_8handle_tEE3$_6Lb0EE4wrapERKS9_EUlDpOT_E_NS_9allocatorISG_EEFbS8_EEclES8_', symObjAddr: 0xC9B8, symBinAddr: 0x1000196EC, symSize: 0x17C }
  - { offsetInCU: 0x1BBF55, offset: 0x4201BF, size: 0x8, addend: 0x0, symName: '__ZNKSt3__110__function6__funcIZN11handlegraph20BoolReturningWrapperIZN2vg2VG17apply_orientationERKNS2_8handle_tEE3$_6Lb0EE4wrapERKS9_EUlDpOT_E_NS_9allocatorISG_EEFbS8_EE6targetERKSt9type_info', symObjAddr: 0xCB34, symBinAddr: 0x100019868, symSize: 0x60 }
  - { offsetInCU: 0x1BBF60, offset: 0x4201CA, size: 0x8, addend: 0x0, symName: '__ZNKSt3__110__function6__funcIZN11handlegraph20BoolReturningWrapperIZN2vg2VG17apply_orientationERKNS2_8handle_tEE3$_6Lb0EE4wrapERKS9_EUlDpOT_E_NS_9allocatorISG_EEFbS8_EE6targetERKSt9type_info', symObjAddr: 0xCB34, symBinAddr: 0x100019868, symSize: 0x60 }
  - { offsetInCU: 0x1BBFE6, offset: 0x420250, size: 0x8, addend: 0x0, symName: '__ZNKSt3__110__function6__funcIZN11handlegraph20BoolReturningWrapperIZN2vg2VG17apply_orientationERKNS2_8handle_tEE3$_6Lb0EE4wrapERKS9_EUlDpOT_E_NS_9allocatorISG_EEFbS8_EE11target_typeEv', symObjAddr: 0xCB94, symBinAddr: 0x1000198C8, symSize: 0xC }
  - { offsetInCU: 0x1BC00B, offset: 0x420275, size: 0x8, addend: 0x0, symName: '__ZNSt3__110__function6__funcIZN11handlegraph20BoolReturningWrapperIZN2vg2VG17apply_orientationERKNS2_8handle_tEE3$_7Lb0EE4wrapERKS9_EUlDpOT_E_NS_9allocatorISG_EEFbS8_EED1Ev', symObjAddr: 0xCBB4, symBinAddr: 0x1000198D4, symSize: 0x4 }
  - { offsetInCU: 0x1BC037, offset: 0x4202A1, size: 0x8, addend: 0x0, symName: '__ZNSt3__110__function6__funcIZN11handlegraph20BoolReturningWrapperIZN2vg2VG17apply_orientationERKNS2_8handle_tEE3$_7Lb0EE4wrapERKS9_EUlDpOT_E_NS_9allocatorISG_EEFbS8_EED0Ev', symObjAddr: 0xCBB8, symBinAddr: 0x1000198D8, symSize: 0x4 }
  - { offsetInCU: 0x1BC0EE, offset: 0x420358, size: 0x8, addend: 0x0, symName: '__ZNKSt3__110__function6__funcIZN11handlegraph20BoolReturningWrapperIZN2vg2VG17apply_orientationERKNS2_8handle_tEE3$_7Lb0EE4wrapERKS9_EUlDpOT_E_NS_9allocatorISG_EEFbS8_EE7__cloneEv', symObjAddr: 0xCBBC, symBinAddr: 0x1000198DC, symSize: 0x34 }
  - { offsetInCU: 0x1BC237, offset: 0x4204A1, size: 0x8, addend: 0x0, symName: '__ZNKSt3__110__function6__funcIZN11handlegraph20BoolReturningWrapperIZN2vg2VG17apply_orientationERKNS2_8handle_tEE3$_7Lb0EE4wrapERKS9_EUlDpOT_E_NS_9allocatorISG_EEFbS8_EE7__cloneEPNS0_6__baseISJ_EE', symObjAddr: 0xCBF0, symBinAddr: 0x100019910, symSize: 0x14 }
  - { offsetInCU: 0x1BC2A7, offset: 0x420511, size: 0x8, addend: 0x0, symName: '__ZNSt3__110__function6__funcIZN11handlegraph20BoolReturningWrapperIZN2vg2VG17apply_orientationERKNS2_8handle_tEE3$_7Lb0EE4wrapERKS9_EUlDpOT_E_NS_9allocatorISG_EEFbS8_EE7destroyEv', symObjAddr: 0xCC04, symBinAddr: 0x100019924, symSize: 0x4 }
  - { offsetInCU: 0x1BC2FA, offset: 0x420564, size: 0x8, addend: 0x0, symName: '__ZNSt3__110__function6__funcIZN11handlegraph20BoolReturningWrapperIZN2vg2VG17apply_orientationERKNS2_8handle_tEE3$_7Lb0EE4wrapERKS9_EUlDpOT_E_NS_9allocatorISG_EEFbS8_EE18destroy_deallocateEv', symObjAddr: 0xCC08, symBinAddr: 0x100019928, symSize: 0x4 }
  - { offsetInCU: 0x1BC330, offset: 0x42059A, size: 0x8, addend: 0x0, symName: '__ZNSt3__110__function6__funcIZN11handlegraph20BoolReturningWrapperIZN2vg2VG17apply_orientationERKNS2_8handle_tEE3$_7Lb0EE4wrapERKS9_EUlDpOT_E_NS_9allocatorISG_EEFbS8_EE18destroy_deallocateEv', symObjAddr: 0xCC08, symBinAddr: 0x100019928, symSize: 0x4 }
  - { offsetInCU: 0x1BC352, offset: 0x4205BC, size: 0x8, addend: 0x0, symName: '__ZNSt3__110__function6__funcIZN11handlegraph20BoolReturningWrapperIZN2vg2VG17apply_orientationERKNS2_8handle_tEE3$_7Lb0EE4wrapERKS9_EUlDpOT_E_NS_9allocatorISG_EEFbS8_EE18destroy_deallocateEv', symObjAddr: 0xCC08, symBinAddr: 0x100019928, symSize: 0x4 }
  - { offsetInCU: 0x1BC37D, offset: 0x4205E7, size: 0x8, addend: 0x0, symName: '__ZNSt3__110__function6__funcIZN11handlegraph20BoolReturningWrapperIZN2vg2VG17apply_orientationERKNS2_8handle_tEE3$_7Lb0EE4wrapERKS9_EUlDpOT_E_NS_9allocatorISG_EEFbS8_EE18destroy_deallocateEv', symObjAddr: 0xCC08, symBinAddr: 0x100019928, symSize: 0x4 }
  - { offsetInCU: 0x1BC3A3, offset: 0x42060D, size: 0x8, addend: 0x0, symName: '__ZNSt3__110__function6__funcIZN11handlegraph20BoolReturningWrapperIZN2vg2VG17apply_orientationERKNS2_8handle_tEE3$_7Lb0EE4wrapERKS9_EUlDpOT_E_NS_9allocatorISG_EEFbS8_EE18destroy_deallocateEv', symObjAddr: 0xCC08, symBinAddr: 0x100019928, symSize: 0x4 }
  - { offsetInCU: 0x1BC483, offset: 0x4206ED, size: 0x8, addend: 0x0, symName: '__ZNSt3__110__function6__funcIZN11handlegraph20BoolReturningWrapperIZN2vg2VG17apply_orientationERKNS2_8handle_tEE3$_7Lb0EE4wrapERKS9_EUlDpOT_E_NS_9allocatorISG_EEFbS8_EEclES8_', symObjAddr: 0xCC0C, symBinAddr: 0x10001992C, symSize: 0x17C }
  - { offsetInCU: 0x1BC907, offset: 0x420B71, size: 0x8, addend: 0x0, symName: '__ZNKSt3__110__function6__funcIZN11handlegraph20BoolReturningWrapperIZN2vg2VG17apply_orientationERKNS2_8handle_tEE3$_7Lb0EE4wrapERKS9_EUlDpOT_E_NS_9allocatorISG_EEFbS8_EE6targetERKSt9type_info', symObjAddr: 0xCD88, symBinAddr: 0x100019AA8, symSize: 0x60 }
  - { offsetInCU: 0x1BC912, offset: 0x420B7C, size: 0x8, addend: 0x0, symName: '__ZNKSt3__110__function6__funcIZN11handlegraph20BoolReturningWrapperIZN2vg2VG17apply_orientationERKNS2_8handle_tEE3$_7Lb0EE4wrapERKS9_EUlDpOT_E_NS_9allocatorISG_EEFbS8_EE6targetERKSt9type_info', symObjAddr: 0xCD88, symBinAddr: 0x100019AA8, symSize: 0x60 }
  - { offsetInCU: 0x1BC998, offset: 0x420C02, size: 0x8, addend: 0x0, symName: '__ZNKSt3__110__function6__funcIZN11handlegraph20BoolReturningWrapperIZN2vg2VG17apply_orientationERKNS2_8handle_tEE3$_7Lb0EE4wrapERKS9_EUlDpOT_E_NS_9allocatorISG_EEFbS8_EE11target_typeEv', symObjAddr: 0xCDE8, symBinAddr: 0x100019B08, symSize: 0xC }
  - { offsetInCU: 0x1BD9D0, offset: 0x421C3A, size: 0x8, addend: 0x0, symName: __ZNK3spp16sparse_hashtableINSt3__14pairIKxNS1_6vectorINS2_IxbEENS1_9allocatorIS5_EEEEEExN2vg9wang_hashIxvEENS_15sparse_hash_mapIxS8_SC_NS1_8equal_toIxEENS_14libc_allocatorIS9_EEE9SelectKeyENSI_6SetKeyESF_SH_E14_find_positionERS3_, symObjAddr: 0x1C56C, symBinAddr: 0x10001EAF8, symSize: 0x144 }
  - { offsetInCU: 0x1BDD58, offset: 0x421FC2, size: 0x8, addend: 0x0, symName: __ZN3spp16sparse_hashtableINSt3__14pairIKxNS1_6vectorINS2_IxbEENS1_9allocatorIS5_EEEEEExN2vg9wang_hashIxvEENS_15sparse_hash_mapIxS8_SC_NS1_8equal_toIxEENS_14libc_allocatorIS9_EEE9SelectKeyENSI_6SetKeyESF_SH_E14find_or_insertINSI_12DefaultValueEEERS9_RS3_, symObjAddr: 0x1C6B0, symBinAddr: 0x10001EC3C, symSize: 0x270 }
  - { offsetInCU: 0x1BDD73, offset: 0x421FDD, size: 0x8, addend: 0x0, symName: __ZN3spp16sparse_hashtableINSt3__14pairIKxNS1_6vectorINS2_IxbEENS1_9allocatorIS5_EEEEEExN2vg9wang_hashIxvEENS_15sparse_hash_mapIxS8_SC_NS1_8equal_toIxEENS_14libc_allocatorIS9_EEE9SelectKeyENSI_6SetKeyESF_SH_E14find_or_insertINSI_12DefaultValueEEERS9_RS3_, symObjAddr: 0x1C6B0, symBinAddr: 0x10001EC3C, symSize: 0x270 }
  - { offsetInCU: 0x1BE4D8, offset: 0x422742, size: 0x8, addend: 0x0, symName: __ZNSt3__16__treeINS_4pairINS1_IxbEES2_EENS_4lessIS3_EENS_9allocatorIS3_EEE21__emplace_unique_implIJS2_S2_EEENS1_INS_15__tree_iteratorIS3_PNS_11__tree_nodeIS3_PvEElEEbEEDpOT_, symObjAddr: 0x3A968, symBinAddr: 0x100026450, symSize: 0x130 }
  - { offsetInCU: 0x1BEB2F, offset: 0x422D99, size: 0x8, addend: 0x0, symName: __ZNSt3__16__treeINS_4pairINS1_IxbEES2_EENS_4lessIS3_EENS_9allocatorIS3_EEE7destroyEPNS_11__tree_nodeIS3_PvEE, symObjAddr: 0x39DDC, symBinAddr: 0x100026410, symSize: 0x40 }
  - { offsetInCU: 0x1BEC65, offset: 0x422ECF, size: 0x8, addend: 0x0, symName: __ZNKSt3__16vectorIN2vg9mapping_tENS_9allocatorIS2_EEE20__throw_length_errorB8ue170006Ev, symObjAddr: 0x3AA98, symBinAddr: 0x100026580, symSize: 0x14 }
  - { offsetInCU: 0x1BECA7, offset: 0x422F11, size: 0x8, addend: 0x0, symName: __ZNKSt3__16vectorIPN2vg4NodeENS_9allocatorIS3_EEE20__throw_length_errorB8ue170006Ev, symObjAddr: 0x29824, symBinAddr: 0x100022614, symSize: 0x14 }
  - { offsetInCU: 0x1C938D, offset: 0x42D5F7, size: 0x8, addend: 0x0, symName: __ZN2vg2VGC1Ev, symObjAddr: 0x139A0, symBinAddr: 0x10001ACB4, symSize: 0x288 }
  - { offsetInCU: 0x1CC3A5, offset: 0x43060F, size: 0x8, addend: 0x0, symName: __ZN6google8protobuf8internal20RepeatedPtrFieldBase7MutableINS0_16RepeatedPtrFieldIN2vg4NodeEE11TypeHandlerEEEPNT_4TypeEi.cold.1, symObjAddr: 0x5D614, symBinAddr: 0x10002A28C, symSize: 0x3C }
  - { offsetInCU: 0x1CC3FA, offset: 0x430664, size: 0x8, addend: 0x0, symName: __ZN6google8protobuf8internal20RepeatedPtrFieldBase7MutableINS0_16RepeatedPtrFieldIN2vg4NodeEE11TypeHandlerEEEPNT_4TypeEi.cold.3, symObjAddr: 0x5D68C, symBinAddr: 0x10002A304, symSize: 0x40 }
  - { offsetInCU: 0x1CC44F, offset: 0x4306B9, size: 0x8, addend: 0x0, symName: __ZN6google8protobuf8internal20RepeatedPtrFieldBase7MutableINS0_16RepeatedPtrFieldIN2vg4NodeEE11TypeHandlerEEEPNT_4TypeEi.cold.2, symObjAddr: 0x5D650, symBinAddr: 0x10002A2C8, symSize: 0x3C }
  - { offsetInCU: 0x1CDF0A, offset: 0x432174, size: 0x8, addend: 0x0, symName: __ZN3spp16sparse_hashtableINSt3__14pairIKxPN2vg4NodeEEExNS4_9wang_hashIxvEENS_15sparse_hash_mapIxS6_S9_NS1_8equal_toIxEENS_14libc_allocatorIS7_EEE9SelectKeyENSF_6SetKeyESC_SE_E13_resize_deltaEm, symObjAddr: 0x18AD8, symBinAddr: 0x10001B588, symSize: 0x2EC }
  - { offsetInCU: 0x1CE626, offset: 0x432890, size: 0x8, addend: 0x0, symName: __ZNK3spp16sparse_hashtableINSt3__14pairIKxPN2vg4NodeEEExNS4_9wang_hashIxvEENS_15sparse_hash_mapIxS6_S9_NS1_8equal_toIxEENS_14libc_allocatorIS7_EEE9SelectKeyENSF_6SetKeyESC_SE_E14_find_positionERS3_, symObjAddr: 0x19770, symBinAddr: 0x10001C220, symSize: 0x144 }
  - { offsetInCU: 0x1CE9AE, offset: 0x432C18, size: 0x8, addend: 0x0, symName: __ZN3spp11sparsetableINSt3__14pairIKxPN2vg4NodeEEENS_14libc_allocatorIS7_EEE3setIS7_EERS7_mRT_, symObjAddr: 0x198B4, symBinAddr: 0x10001C364, symSize: 0x164 }
  - { offsetInCU: 0x1CE9B9, offset: 0x432C23, size: 0x8, addend: 0x0, symName: __ZN3spp16sparse_hashtableINSt3__14pairIKxPN2vg4NodeEEExNS4_9wang_hashIxvEENS_15sparse_hash_mapIxS6_S9_NS1_8equal_toIxEENS_14libc_allocatorIS7_EEE9SelectKeyENSF_6SetKeyESC_SE_E10_insert_atIS7_EERS7_RT_mb, symObjAddr: 0x18DC4, symBinAddr: 0x10001B874, symSize: 0xB8 }
  - { offsetInCU: 0x1CEB1F, offset: 0x432D89, size: 0x8, addend: 0x0, symName: __ZN3spp16sparse_hashtableINSt3__14pairIKxPN2vg4NodeEEExNS4_9wang_hashIxvEENS_15sparse_hash_mapIxS6_S9_NS1_8equal_toIxEENS_14libc_allocatorIS7_EEE9SelectKeyENSF_6SetKeyESC_SE_E14find_or_insertINSF_12DefaultValueEEERS7_RS3_.cold.2, symObjAddr: 0x5D810, symBinAddr: 0x10002A368, symSize: 0x24 }
  - { offsetInCU: 0x1CEB37, offset: 0x432DA1, size: 0x8, addend: 0x0, symName: __ZN3spp16sparse_hashtableINSt3__14pairIKxPN2vg4NodeEEExNS4_9wang_hashIxvEENS_15sparse_hash_mapIxS6_S9_NS1_8equal_toIxEENS_14libc_allocatorIS7_EEE9SelectKeyENSF_6SetKeyESC_SE_E14find_or_insertINSF_12DefaultValueEEERS7_RS3_.cold.1, symObjAddr: 0x5D7EC, symBinAddr: 0x10002A344, symSize: 0x24 }
  - { offsetInCU: 0x1CEC0E, offset: 0x432E78, size: 0x8, addend: 0x0, symName: __ZN3spp16sparse_hashtableINSt3__14pairIKxPN2vg4NodeEEExNS4_9wang_hashIxvEENS_15sparse_hash_mapIxS6_S9_NS1_8equal_toIxEENS_14libc_allocatorIS7_EEE9SelectKeyENSF_6SetKeyESC_SE_E13_maybe_shrinkEv, symObjAddr: 0x18E7C, symBinAddr: 0x10001B92C, symSize: 0x174 }
  - { offsetInCU: 0x1CF0DA, offset: 0x433344, size: 0x8, addend: 0x0, symName: __ZN3spp16sparse_hashtableINSt3__14pairIKxPN2vg4NodeEEExNS4_9wang_hashIxvEENS_15sparse_hash_mapIxS6_S9_NS1_8equal_toIxEENS_14libc_allocatorIS7_EEE9SelectKeyENSF_6SetKeyESC_SE_EC1ENSI_13MoveDontCopyTERSI_m, symObjAddr: 0x18FF0, symBinAddr: 0x10001BAA0, symSize: 0xEC }
  - { offsetInCU: 0x1CF0E5, offset: 0x43334F, size: 0x8, addend: 0x0, symName: __ZN3spp16sparse_hashtableINSt3__14pairIKxPN2vg4NodeEEExNS4_9wang_hashIxvEENS_15sparse_hash_mapIxS6_S9_NS1_8equal_toIxEENS_14libc_allocatorIS7_EEE9SelectKeyENSF_6SetKeyESC_SE_EC1ENSI_13MoveDontCopyTERSI_m, symObjAddr: 0x18FF0, symBinAddr: 0x10001BAA0, symSize: 0xEC }
  - { offsetInCU: 0x1CF3F5, offset: 0x43365F, size: 0x8, addend: 0x0, symName: __ZN3spp11sparsetableINSt3__14pairIKxPN2vg4NodeEEENS_14libc_allocatorIS7_EEE3setIS7_EERS7_mRT_, symObjAddr: 0x198B4, symBinAddr: 0x10001C364, symSize: 0x164 }
  - { offsetInCU: 0x1CF78E, offset: 0x4339F8, size: 0x8, addend: 0x0, symName: __ZN3spp16sparse_hashtableINSt3__14pairIKPN2vg4NodeEiEES5_NS3_9wang_hashIS5_vEENS_15sparse_hash_mapIS5_iS9_NS1_8equal_toIS5_EENS_14libc_allocatorIS7_EEE9SelectKeyENSF_6SetKeyESC_SE_E14find_or_insertINSF_12DefaultValueEEERS7_RS6_, symObjAddr: 0x19A18, symBinAddr: 0x10001C4C8, symSize: 0x224 }
  - { offsetInCU: 0x1CF7A2, offset: 0x433A0C, size: 0x8, addend: 0x0, symName: __ZN3spp16sparse_hashtableINSt3__14pairIKxPN2vg4NodeEEExNS4_9wang_hashIxvEENS_15sparse_hash_mapIxS6_S9_NS1_8equal_toIxEENS_14libc_allocatorIS7_EEE9SelectKeyENSF_6SetKeyESC_SE_E10_insert_atIS7_EERS7_RT_mb.cold.1, symObjAddr: 0x5D834, symBinAddr: 0x10002A38C, symSize: 0x24 }
  - { offsetInCU: 0x1CF7BA, offset: 0x433A24, size: 0x8, addend: 0x0, symName: __ZN3spp16sparse_hashtableINSt3__14pairIKxPN2vg4NodeEEExNS4_9wang_hashIxvEENS_15sparse_hash_mapIxS6_S9_NS1_8equal_toIxEENS_14libc_allocatorIS7_EEE9SelectKeyENSF_6SetKeyESC_SE_E13_maybe_shrinkEv.cold.2, symObjAddr: 0x5D87C, symBinAddr: 0x10002A3D4, symSize: 0x24 }
  - { offsetInCU: 0x1CF7D2, offset: 0x433A3C, size: 0x8, addend: 0x0, symName: __ZN3spp16sparse_hashtableINSt3__14pairIKxPN2vg4NodeEEExNS4_9wang_hashIxvEENS_15sparse_hash_mapIxS6_S9_NS1_8equal_toIxEENS_14libc_allocatorIS7_EEE9SelectKeyENSF_6SetKeyESC_SE_E13_maybe_shrinkEv.cold.1, symObjAddr: 0x5D858, symBinAddr: 0x10002A3B0, symSize: 0x24 }
  - { offsetInCU: 0x1CF83C, offset: 0x433AA6, size: 0x8, addend: 0x0, symName: __ZN3spp16sparse_hashtableINSt3__14pairIKxPN2vg4NodeEEExNS4_9wang_hashIxvEENS_15sparse_hash_mapIxS6_S9_NS1_8equal_toIxEENS_14libc_allocatorIS7_EEE9SelectKeyENSF_6SetKeyESC_SE_E10_move_fromENSI_13MoveDontCopyTERSI_m, symObjAddr: 0x190DC, symBinAddr: 0x10001BB8C, symSize: 0x350 }
  - { offsetInCU: 0x1D0116, offset: 0x434380, size: 0x8, addend: 0x0, symName: __ZN3spp16sparse_hashtableINSt3__14pairIKxPN2vg4NodeEEExNS4_9wang_hashIxvEENS_15sparse_hash_mapIxS6_S9_NS1_8equal_toIxEENS_14libc_allocatorIS7_EEE9SelectKeyENSF_6SetKeyESC_SE_EC1ENSI_13MoveDontCopyTERSI_m.cold.1, symObjAddr: 0x5D8A0, symBinAddr: 0x10002A3F8, symSize: 0x4C }
  - { offsetInCU: 0x1D03B7, offset: 0x434621, size: 0x8, addend: 0x0, symName: __ZN3spp11sparsetableINSt3__14pairIKxPN2vg4NodeEEENS_14libc_allocatorIS7_EEE6resizeEm, symObjAddr: 0x194FC, symBinAddr: 0x10001BFAC, symSize: 0x128 }
  - { offsetInCU: 0x1D064A, offset: 0x4348B4, size: 0x8, addend: 0x0, symName: __ZN3spp11sparsetableINSt3__14pairIKxPN2vg4NodeEEENS_14libc_allocatorIS7_EEE4moveEmRS7_, symObjAddr: 0x19624, symBinAddr: 0x10001C0D4, symSize: 0x14C }
  - { offsetInCU: 0x1D0960, offset: 0x434BCA, size: 0x8, addend: 0x0, symName: __ZNK3spp16sparse_hashtableINSt3__14pairIKxPN2vg4NodeEEExNS4_9wang_hashIxvEENS_15sparse_hash_mapIxS6_S9_NS1_8equal_toIxEENS_14libc_allocatorIS7_EEE9SelectKeyENSF_6SetKeyESC_SE_E14_find_positionERS3_, symObjAddr: 0x19770, symBinAddr: 0x10001C220, symSize: 0x144 }
  - { offsetInCU: 0x1D096B, offset: 0x434BD5, size: 0x8, addend: 0x0, symName: __ZN3spp16sparse_hashtableINSt3__14pairIKxPN2vg4NodeEEExNS4_9wang_hashIxvEENS_15sparse_hash_mapIxS6_S9_NS1_8equal_toIxEENS_14libc_allocatorIS7_EEE9SelectKeyENSF_6SetKeyESC_SE_E10_move_fromENSI_13MoveDontCopyTERSI_m.cold.1, symObjAddr: 0x5D8EC, symBinAddr: 0x10002A444, symSize: 0x24 }
  - { offsetInCU: 0x1D0983, offset: 0x434BED, size: 0x8, addend: 0x0, symName: __ZN3spp16sparse_hashtableINSt3__14pairIKxPN2vg4NodeEEExNS4_9wang_hashIxvEENS_15sparse_hash_mapIxS6_S9_NS1_8equal_toIxEENS_14libc_allocatorIS7_EEE9SelectKeyENSF_6SetKeyESC_SE_E10_move_fromENSI_13MoveDontCopyTERSI_m.cold.2, symObjAddr: 0x5D910, symBinAddr: 0x10002A468, symSize: 0x24 }
  - { offsetInCU: 0x1D0C6F, offset: 0x434ED9, size: 0x8, addend: 0x0, symName: __ZN3spp11sparsetableINSt3__14pairIKxPN2vg4NodeEEENS_14libc_allocatorIS7_EEE4moveEmRS7_.cold.1, symObjAddr: 0x5D934, symBinAddr: 0x10002A48C, symSize: 0x24 }
  - { offsetInCU: 0x1D0C87, offset: 0x434EF1, size: 0x8, addend: 0x0, symName: __ZNK3spp16sparse_hashtableINSt3__14pairIKxPN2vg4NodeEEExNS4_9wang_hashIxvEENS_15sparse_hash_mapIxS6_S9_NS1_8equal_toIxEENS_14libc_allocatorIS7_EEE9SelectKeyENSF_6SetKeyESC_SE_E14_find_positionERS3_.cold.1, symObjAddr: 0x5D958, symBinAddr: 0x10002A4B0, symSize: 0x24 }
  - { offsetInCU: 0x1D0CB5, offset: 0x434F1F, size: 0x8, addend: 0x0, symName: __ZN3spp11sparsetableINSt3__14pairIKxPN2vg4NodeEEENS_14libc_allocatorIS7_EEE3setIS7_EERS7_mRT_.cold.1, symObjAddr: 0x5D97C, symBinAddr: 0x10002A4D4, symSize: 0x24 }
  - { offsetInCU: 0x1D11F9, offset: 0x435463, size: 0x8, addend: 0x0, symName: __ZN3spp16sparse_hashtableINSt3__14pairIKPN2vg4NodeEiEES5_NS3_9wang_hashIS5_vEENS_15sparse_hash_mapIS5_iS9_NS1_8equal_toIS5_EENS_14libc_allocatorIS7_EEE9SelectKeyENSF_6SetKeyESC_SE_E13_resize_deltaEm, symObjAddr: 0x19C3C, symBinAddr: 0x10001C6EC, symSize: 0x2EC }
  - { offsetInCU: 0x1D1915, offset: 0x435B7F, size: 0x8, addend: 0x0, symName: __ZNK3spp16sparse_hashtableINSt3__14pairIKPN2vg4NodeEiEES5_NS3_9wang_hashIS5_vEENS_15sparse_hash_mapIS5_iS9_NS1_8equal_toIS5_EENS_14libc_allocatorIS7_EEE9SelectKeyENSF_6SetKeyESC_SE_E14_find_positionERS6_, symObjAddr: 0x1A8DC, symBinAddr: 0x10001D38C, symSize: 0x144 }
  - { offsetInCU: 0x1D1C9D, offset: 0x435F07, size: 0x8, addend: 0x0, symName: __ZN3spp11sparsetableINSt3__14pairIKPN2vg4NodeEiEENS_14libc_allocatorIS7_EEE3setIS7_EERS7_mRT_, symObjAddr: 0x1AA20, symBinAddr: 0x10001D4D0, symSize: 0x16C }
  - { offsetInCU: 0x1D1CA8, offset: 0x435F12, size: 0x8, addend: 0x0, symName: __ZN3spp16sparse_hashtableINSt3__14pairIKPN2vg4NodeEiEES5_NS3_9wang_hashIS5_vEENS_15sparse_hash_mapIS5_iS9_NS1_8equal_toIS5_EENS_14libc_allocatorIS7_EEE9SelectKeyENSF_6SetKeyESC_SE_E10_insert_atIS7_EERS7_RT_mb, symObjAddr: 0x19F28, symBinAddr: 0x10001C9D8, symSize: 0xB8 }
  - { offsetInCU: 0x1D1E0E, offset: 0x436078, size: 0x8, addend: 0x0, symName: __ZN3spp16sparse_hashtableINSt3__14pairIKPN2vg4NodeEiEES5_NS3_9wang_hashIS5_vEENS_15sparse_hash_mapIS5_iS9_NS1_8equal_toIS5_EENS_14libc_allocatorIS7_EEE9SelectKeyENSF_6SetKeyESC_SE_E14find_or_insertINSF_12DefaultValueEEERS7_RS6_.cold.2, symObjAddr: 0x5D9C4, symBinAddr: 0x10002A51C, symSize: 0x24 }
  - { offsetInCU: 0x1D1E26, offset: 0x436090, size: 0x8, addend: 0x0, symName: __ZN3spp16sparse_hashtableINSt3__14pairIKPN2vg4NodeEiEES5_NS3_9wang_hashIS5_vEENS_15sparse_hash_mapIS5_iS9_NS1_8equal_toIS5_EENS_14libc_allocatorIS7_EEE9SelectKeyENSF_6SetKeyESC_SE_E14find_or_insertINSF_12DefaultValueEEERS7_RS6_.cold.1, symObjAddr: 0x5D9A0, symBinAddr: 0x10002A4F8, symSize: 0x24 }
  - { offsetInCU: 0x1D1FC9, offset: 0x436233, size: 0x8, addend: 0x0, symName: __ZN3spp16sparse_hashtableINSt3__14pairIKPN2vg4NodeEiEES5_NS3_9wang_hashIS5_vEENS_15sparse_hash_mapIS5_iS9_NS1_8equal_toIS5_EENS_14libc_allocatorIS7_EEE9SelectKeyENSF_6SetKeyESC_SE_E13_maybe_shrinkEv, symObjAddr: 0x19FE0, symBinAddr: 0x10001CA90, symSize: 0x174 }
  - { offsetInCU: 0x1D2495, offset: 0x4366FF, size: 0x8, addend: 0x0, symName: __ZN3spp16sparse_hashtableINSt3__14pairIKPN2vg4NodeEiEES5_NS3_9wang_hashIS5_vEENS_15sparse_hash_mapIS5_iS9_NS1_8equal_toIS5_EENS_14libc_allocatorIS7_EEE9SelectKeyENSF_6SetKeyESC_SE_EC1ENSI_13MoveDontCopyTERSI_m, symObjAddr: 0x1A154, symBinAddr: 0x10001CC04, symSize: 0xEC }
  - { offsetInCU: 0x1D24A0, offset: 0x43670A, size: 0x8, addend: 0x0, symName: __ZN3spp16sparse_hashtableINSt3__14pairIKPN2vg4NodeEiEES5_NS3_9wang_hashIS5_vEENS_15sparse_hash_mapIS5_iS9_NS1_8equal_toIS5_EENS_14libc_allocatorIS7_EEE9SelectKeyENSF_6SetKeyESC_SE_EC1ENSI_13MoveDontCopyTERSI_m, symObjAddr: 0x1A154, symBinAddr: 0x10001CC04, symSize: 0xEC }
  - { offsetInCU: 0x1D27B0, offset: 0x436A1A, size: 0x8, addend: 0x0, symName: __ZN3spp11sparsetableINSt3__14pairIKPN2vg4NodeEiEENS_14libc_allocatorIS7_EEE3setIS7_EERS7_mRT_, symObjAddr: 0x1AA20, symBinAddr: 0x10001D4D0, symSize: 0x16C }
  - { offsetInCU: 0x1D2B49, offset: 0x436DB3, size: 0x8, addend: 0x0, symName: __ZNK2vg2VG8has_edgeERKNS_4EdgeE, symObjAddr: 0x1AB8C, symBinAddr: 0x10001D63C, symSize: 0x144 }
  - { offsetInCU: 0x1D2B5D, offset: 0x436DC7, size: 0x8, addend: 0x0, symName: __ZN3spp16sparse_hashtableINSt3__14pairIKPN2vg4NodeEiEES5_NS3_9wang_hashIS5_vEENS_15sparse_hash_mapIS5_iS9_NS1_8equal_toIS5_EENS_14libc_allocatorIS7_EEE9SelectKeyENSF_6SetKeyESC_SE_E10_insert_atIS7_EERS7_RT_mb.cold.1, symObjAddr: 0x5D9E8, symBinAddr: 0x10002A540, symSize: 0x24 }
  - { offsetInCU: 0x1D2BA1, offset: 0x436E0B, size: 0x8, addend: 0x0, symName: __ZN3spp16sparse_hashtableINSt3__14pairIKPN2vg4NodeEiEES5_NS3_9wang_hashIS5_vEENS_15sparse_hash_mapIS5_iS9_NS1_8equal_toIS5_EENS_14libc_allocatorIS7_EEE9SelectKeyENSF_6SetKeyESC_SE_E13_maybe_shrinkEv.cold.2, symObjAddr: 0x5DA30, symBinAddr: 0x10002A588, symSize: 0x24 }
  - { offsetInCU: 0x1D2BB9, offset: 0x436E23, size: 0x8, addend: 0x0, symName: __ZN3spp16sparse_hashtableINSt3__14pairIKPN2vg4NodeEiEES5_NS3_9wang_hashIS5_vEENS_15sparse_hash_mapIS5_iS9_NS1_8equal_toIS5_EENS_14libc_allocatorIS7_EEE9SelectKeyENSF_6SetKeyESC_SE_E13_maybe_shrinkEv.cold.1, symObjAddr: 0x5DA0C, symBinAddr: 0x10002A564, symSize: 0x24 }
  - { offsetInCU: 0x1D2C23, offset: 0x436E8D, size: 0x8, addend: 0x0, symName: __ZN3spp16sparse_hashtableINSt3__14pairIKPN2vg4NodeEiEES5_NS3_9wang_hashIS5_vEENS_15sparse_hash_mapIS5_iS9_NS1_8equal_toIS5_EENS_14libc_allocatorIS7_EEE9SelectKeyENSF_6SetKeyESC_SE_E10_move_fromENSI_13MoveDontCopyTERSI_m, symObjAddr: 0x1A240, symBinAddr: 0x10001CCF0, symSize: 0x350 }
  - { offsetInCU: 0x1D34FF, offset: 0x437769, size: 0x8, addend: 0x0, symName: __ZN3spp16sparse_hashtableINSt3__14pairIKPN2vg4NodeEiEES5_NS3_9wang_hashIS5_vEENS_15sparse_hash_mapIS5_iS9_NS1_8equal_toIS5_EENS_14libc_allocatorIS7_EEE9SelectKeyENSF_6SetKeyESC_SE_EC1ENSI_13MoveDontCopyTERSI_m.cold.1, symObjAddr: 0x5DA54, symBinAddr: 0x10002A5AC, symSize: 0x4C }
  - { offsetInCU: 0x1D37F8, offset: 0x437A62, size: 0x8, addend: 0x0, symName: __ZN3spp11sparsetableINSt3__14pairIKPN2vg4NodeEiEENS_14libc_allocatorIS7_EEE6resizeEm, symObjAddr: 0x1A660, symBinAddr: 0x10001D110, symSize: 0x128 }
  - { offsetInCU: 0x1D3A8B, offset: 0x437CF5, size: 0x8, addend: 0x0, symName: __ZN3spp11sparsetableINSt3__14pairIKPN2vg4NodeEiEENS_14libc_allocatorIS7_EEE4moveEmRS7_, symObjAddr: 0x1A788, symBinAddr: 0x10001D238, symSize: 0x154 }
  - { offsetInCU: 0x1D3DA1, offset: 0x43800B, size: 0x8, addend: 0x0, symName: __ZNK3spp16sparse_hashtableINSt3__14pairIKPN2vg4NodeEiEES5_NS3_9wang_hashIS5_vEENS_15sparse_hash_mapIS5_iS9_NS1_8equal_toIS5_EENS_14libc_allocatorIS7_EEE9SelectKeyENSF_6SetKeyESC_SE_E14_find_positionERS6_, symObjAddr: 0x1A8DC, symBinAddr: 0x10001D38C, symSize: 0x144 }
  - { offsetInCU: 0x1D3DAC, offset: 0x438016, size: 0x8, addend: 0x0, symName: __ZN3spp16sparse_hashtableINSt3__14pairIKPN2vg4NodeEiEES5_NS3_9wang_hashIS5_vEENS_15sparse_hash_mapIS5_iS9_NS1_8equal_toIS5_EENS_14libc_allocatorIS7_EEE9SelectKeyENSF_6SetKeyESC_SE_E10_move_fromENSI_13MoveDontCopyTERSI_m.cold.1, symObjAddr: 0x5DAA0, symBinAddr: 0x10002A5F8, symSize: 0x24 }
  - { offsetInCU: 0x1D3DC4, offset: 0x43802E, size: 0x8, addend: 0x0, symName: __ZN3spp16sparse_hashtableINSt3__14pairIKPN2vg4NodeEiEES5_NS3_9wang_hashIS5_vEENS_15sparse_hash_mapIS5_iS9_NS1_8equal_toIS5_EENS_14libc_allocatorIS7_EEE9SelectKeyENSF_6SetKeyESC_SE_E10_move_fromENSI_13MoveDontCopyTERSI_m.cold.2, symObjAddr: 0x5DAC4, symBinAddr: 0x10002A61C, symSize: 0x24 }
  - { offsetInCU: 0x1D40B0, offset: 0x43831A, size: 0x8, addend: 0x0, symName: __ZN3spp11sparsetableINSt3__14pairIKPN2vg4NodeEiEENS_14libc_allocatorIS7_EEE4moveEmRS7_.cold.1, symObjAddr: 0x5DAE8, symBinAddr: 0x10002A640, symSize: 0x24 }
  - { offsetInCU: 0x1D40C8, offset: 0x438332, size: 0x8, addend: 0x0, symName: __ZNK3spp16sparse_hashtableINSt3__14pairIKPN2vg4NodeEiEES5_NS3_9wang_hashIS5_vEENS_15sparse_hash_mapIS5_iS9_NS1_8equal_toIS5_EENS_14libc_allocatorIS7_EEE9SelectKeyENSF_6SetKeyESC_SE_E14_find_positionERS6_.cold.1, symObjAddr: 0x5DB0C, symBinAddr: 0x10002A664, symSize: 0x24 }
  - { offsetInCU: 0x1D40F6, offset: 0x438360, size: 0x8, addend: 0x0, symName: __ZN3spp11sparsetableINSt3__14pairIKPN2vg4NodeEiEENS_14libc_allocatorIS7_EEE3setIS7_EERS7_mRT_.cold.1, symObjAddr: 0x5DB30, symBinAddr: 0x10002A688, symSize: 0x24 }
  - { offsetInCU: 0x1D464E, offset: 0x4388B8, size: 0x8, addend: 0x0, symName: __ZN3spp16sparse_hashtableINSt3__14pairIKPN2vg4EdgeEiEES5_NS3_9wang_hashIS5_vEENS_15sparse_hash_mapIS5_iS9_NS1_8equal_toIS5_EENS_14libc_allocatorIS7_EEE9SelectKeyENSF_6SetKeyESC_SE_E13_resize_deltaEm, symObjAddr: 0x1AF3C, symBinAddr: 0x10001D9A4, symSize: 0x2EC }
  - { offsetInCU: 0x1D4D6A, offset: 0x438FD4, size: 0x8, addend: 0x0, symName: __ZNK3spp16sparse_hashtableINSt3__14pairIKPN2vg4EdgeEiEES5_NS3_9wang_hashIS5_vEENS_15sparse_hash_mapIS5_iS9_NS1_8equal_toIS5_EENS_14libc_allocatorIS7_EEE9SelectKeyENSF_6SetKeyESC_SE_E14_find_positionERS6_, symObjAddr: 0x1BBDC, symBinAddr: 0x10001E644, symSize: 0x144 }
  - { offsetInCU: 0x1D50F2, offset: 0x43935C, size: 0x8, addend: 0x0, symName: __ZN3spp11sparsetableINSt3__14pairIKPN2vg4EdgeEiEENS_14libc_allocatorIS7_EEE3setIS7_EERS7_mRT_, symObjAddr: 0x1BD20, symBinAddr: 0x10001E788, symSize: 0x16C }
  - { offsetInCU: 0x1D50FD, offset: 0x439367, size: 0x8, addend: 0x0, symName: __ZN3spp16sparse_hashtableINSt3__14pairIKPN2vg4EdgeEiEES5_NS3_9wang_hashIS5_vEENS_15sparse_hash_mapIS5_iS9_NS1_8equal_toIS5_EENS_14libc_allocatorIS7_EEE9SelectKeyENSF_6SetKeyESC_SE_E10_insert_atIS7_EERS7_RT_mb, symObjAddr: 0x1B228, symBinAddr: 0x10001DC90, symSize: 0xB8 }
  - { offsetInCU: 0x1D5263, offset: 0x4394CD, size: 0x8, addend: 0x0, symName: __ZN3spp16sparse_hashtableINSt3__14pairIKPN2vg4EdgeEiEES5_NS3_9wang_hashIS5_vEENS_15sparse_hash_mapIS5_iS9_NS1_8equal_toIS5_EENS_14libc_allocatorIS7_EEE9SelectKeyENSF_6SetKeyESC_SE_E14find_or_insertINSF_12DefaultValueEEERS7_RS6_.cold.2, symObjAddr: 0x5DB78, symBinAddr: 0x10002A6D0, symSize: 0x24 }
  - { offsetInCU: 0x1D527B, offset: 0x4394E5, size: 0x8, addend: 0x0, symName: __ZN3spp16sparse_hashtableINSt3__14pairIKPN2vg4EdgeEiEES5_NS3_9wang_hashIS5_vEENS_15sparse_hash_mapIS5_iS9_NS1_8equal_toIS5_EENS_14libc_allocatorIS7_EEE9SelectKeyENSF_6SetKeyESC_SE_E14find_or_insertINSF_12DefaultValueEEERS7_RS6_.cold.1, symObjAddr: 0x5DB54, symBinAddr: 0x10002A6AC, symSize: 0x24 }
  - { offsetInCU: 0x1D541E, offset: 0x439688, size: 0x8, addend: 0x0, symName: __ZN3spp16sparse_hashtableINSt3__14pairIKPN2vg4EdgeEiEES5_NS3_9wang_hashIS5_vEENS_15sparse_hash_mapIS5_iS9_NS1_8equal_toIS5_EENS_14libc_allocatorIS7_EEE9SelectKeyENSF_6SetKeyESC_SE_E13_maybe_shrinkEv, symObjAddr: 0x1B2E0, symBinAddr: 0x10001DD48, symSize: 0x174 }
  - { offsetInCU: 0x1D58EA, offset: 0x439B54, size: 0x8, addend: 0x0, symName: __ZN3spp16sparse_hashtableINSt3__14pairIKPN2vg4EdgeEiEES5_NS3_9wang_hashIS5_vEENS_15sparse_hash_mapIS5_iS9_NS1_8equal_toIS5_EENS_14libc_allocatorIS7_EEE9SelectKeyENSF_6SetKeyESC_SE_EC1ENSI_13MoveDontCopyTERSI_m, symObjAddr: 0x1B454, symBinAddr: 0x10001DEBC, symSize: 0xEC }
  - { offsetInCU: 0x1D58F5, offset: 0x439B5F, size: 0x8, addend: 0x0, symName: __ZN3spp16sparse_hashtableINSt3__14pairIKPN2vg4EdgeEiEES5_NS3_9wang_hashIS5_vEENS_15sparse_hash_mapIS5_iS9_NS1_8equal_toIS5_EENS_14libc_allocatorIS7_EEE9SelectKeyENSF_6SetKeyESC_SE_EC1ENSI_13MoveDontCopyTERSI_m, symObjAddr: 0x1B454, symBinAddr: 0x10001DEBC, symSize: 0xEC }
  - { offsetInCU: 0x1D5C05, offset: 0x439E6F, size: 0x8, addend: 0x0, symName: __ZN3spp11sparsetableINSt3__14pairIKPN2vg4EdgeEiEENS_14libc_allocatorIS7_EEE3setIS7_EERS7_mRT_, symObjAddr: 0x1BD20, symBinAddr: 0x10001E788, symSize: 0x16C }
  - { offsetInCU: 0x1D5FB2, offset: 0x43A21C, size: 0x8, addend: 0x0, symName: __ZN3spp16sparse_hashtableINSt3__14pairIKPN2vg4EdgeEiEES5_NS3_9wang_hashIS5_vEENS_15sparse_hash_mapIS5_iS9_NS1_8equal_toIS5_EENS_14libc_allocatorIS7_EEE9SelectKeyENSF_6SetKeyESC_SE_E10_insert_atIS7_EERS7_RT_mb.cold.1, symObjAddr: 0x5DB9C, symBinAddr: 0x10002A6F4, symSize: 0x24 }
  - { offsetInCU: 0x1D5FF6, offset: 0x43A260, size: 0x8, addend: 0x0, symName: __ZN3spp16sparse_hashtableINSt3__14pairIKPN2vg4EdgeEiEES5_NS3_9wang_hashIS5_vEENS_15sparse_hash_mapIS5_iS9_NS1_8equal_toIS5_EENS_14libc_allocatorIS7_EEE9SelectKeyENSF_6SetKeyESC_SE_E13_maybe_shrinkEv.cold.2, symObjAddr: 0x5DBE4, symBinAddr: 0x10002A73C, symSize: 0x24 }
  - { offsetInCU: 0x1D600E, offset: 0x43A278, size: 0x8, addend: 0x0, symName: __ZN3spp16sparse_hashtableINSt3__14pairIKPN2vg4EdgeEiEES5_NS3_9wang_hashIS5_vEENS_15sparse_hash_mapIS5_iS9_NS1_8equal_toIS5_EENS_14libc_allocatorIS7_EEE9SelectKeyENSF_6SetKeyESC_SE_E13_maybe_shrinkEv.cold.1, symObjAddr: 0x5DBC0, symBinAddr: 0x10002A718, symSize: 0x24 }
  - { offsetInCU: 0x1D6078, offset: 0x43A2E2, size: 0x8, addend: 0x0, symName: __ZN3spp16sparse_hashtableINSt3__14pairIKPN2vg4EdgeEiEES5_NS3_9wang_hashIS5_vEENS_15sparse_hash_mapIS5_iS9_NS1_8equal_toIS5_EENS_14libc_allocatorIS7_EEE9SelectKeyENSF_6SetKeyESC_SE_E10_move_fromENSI_13MoveDontCopyTERSI_m, symObjAddr: 0x1B540, symBinAddr: 0x10001DFA8, symSize: 0x350 }
  - { offsetInCU: 0x1D6954, offset: 0x43ABBE, size: 0x8, addend: 0x0, symName: __ZN3spp16sparse_hashtableINSt3__14pairIKPN2vg4EdgeEiEES5_NS3_9wang_hashIS5_vEENS_15sparse_hash_mapIS5_iS9_NS1_8equal_toIS5_EENS_14libc_allocatorIS7_EEE9SelectKeyENSF_6SetKeyESC_SE_EC1ENSI_13MoveDontCopyTERSI_m.cold.1, symObjAddr: 0x5DC08, symBinAddr: 0x10002A760, symSize: 0x4C }
  - { offsetInCU: 0x1D6C4D, offset: 0x43AEB7, size: 0x8, addend: 0x0, symName: __ZN3spp11sparsetableINSt3__14pairIKPN2vg4EdgeEiEENS_14libc_allocatorIS7_EEE6resizeEm, symObjAddr: 0x1B960, symBinAddr: 0x10001E3C8, symSize: 0x128 }
  - { offsetInCU: 0x1D6EE0, offset: 0x43B14A, size: 0x8, addend: 0x0, symName: __ZN3spp11sparsetableINSt3__14pairIKPN2vg4EdgeEiEENS_14libc_allocatorIS7_EEE4moveEmRS7_, symObjAddr: 0x1BA88, symBinAddr: 0x10001E4F0, symSize: 0x154 }
  - { offsetInCU: 0x1D71F6, offset: 0x43B460, size: 0x8, addend: 0x0, symName: __ZNK3spp16sparse_hashtableINSt3__14pairIKPN2vg4EdgeEiEES5_NS3_9wang_hashIS5_vEENS_15sparse_hash_mapIS5_iS9_NS1_8equal_toIS5_EENS_14libc_allocatorIS7_EEE9SelectKeyENSF_6SetKeyESC_SE_E14_find_positionERS6_, symObjAddr: 0x1BBDC, symBinAddr: 0x10001E644, symSize: 0x144 }
  - { offsetInCU: 0x1D7201, offset: 0x43B46B, size: 0x8, addend: 0x0, symName: __ZN3spp16sparse_hashtableINSt3__14pairIKPN2vg4EdgeEiEES5_NS3_9wang_hashIS5_vEENS_15sparse_hash_mapIS5_iS9_NS1_8equal_toIS5_EENS_14libc_allocatorIS7_EEE9SelectKeyENSF_6SetKeyESC_SE_E10_move_fromENSI_13MoveDontCopyTERSI_m.cold.1, symObjAddr: 0x5DC54, symBinAddr: 0x10002A7AC, symSize: 0x24 }
  - { offsetInCU: 0x1D7219, offset: 0x43B483, size: 0x8, addend: 0x0, symName: __ZN3spp16sparse_hashtableINSt3__14pairIKPN2vg4EdgeEiEES5_NS3_9wang_hashIS5_vEENS_15sparse_hash_mapIS5_iS9_NS1_8equal_toIS5_EENS_14libc_allocatorIS7_EEE9SelectKeyENSF_6SetKeyESC_SE_E10_move_fromENSI_13MoveDontCopyTERSI_m.cold.2, symObjAddr: 0x5DC78, symBinAddr: 0x10002A7D0, symSize: 0x24 }
  - { offsetInCU: 0x1D7505, offset: 0x43B76F, size: 0x8, addend: 0x0, symName: __ZN3spp11sparsetableINSt3__14pairIKPN2vg4EdgeEiEENS_14libc_allocatorIS7_EEE4moveEmRS7_.cold.1, symObjAddr: 0x5DC9C, symBinAddr: 0x10002A7F4, symSize: 0x24 }
  - { offsetInCU: 0x1D751D, offset: 0x43B787, size: 0x8, addend: 0x0, symName: __ZNK3spp16sparse_hashtableINSt3__14pairIKPN2vg4EdgeEiEES5_NS3_9wang_hashIS5_vEENS_15sparse_hash_mapIS5_iS9_NS1_8equal_toIS5_EENS_14libc_allocatorIS7_EEE9SelectKeyENSF_6SetKeyESC_SE_E14_find_positionERS6_.cold.1, symObjAddr: 0x5DCC0, symBinAddr: 0x10002A818, symSize: 0x24 }
  - { offsetInCU: 0x1D754B, offset: 0x43B7B5, size: 0x8, addend: 0x0, symName: __ZN3spp11sparsetableINSt3__14pairIKPN2vg4EdgeEiEENS_14libc_allocatorIS7_EEE3setIS7_EERS7_mRT_.cold.1, symObjAddr: 0x5DCE4, symBinAddr: 0x10002A83C, symSize: 0x24 }
  - { offsetInCU: 0x1D7563, offset: 0x43B7CD, size: 0x8, addend: 0x0, symName: __ZNK3spp16sparse_hashtableINSt3__14pairIKxNS1_6vectorINS2_IxbEENS1_9allocatorIS5_EEEEEExN2vg9wang_hashIxvEENS_15sparse_hash_mapIxS8_SC_NS1_8equal_toIxEENS_14libc_allocatorIS9_EEE9SelectKeyENSI_6SetKeyESF_SH_E14_find_positionERS3_.cold.1, symObjAddr: 0x5DD08, symBinAddr: 0x10002A860, symSize: 0x24 }
  - { offsetInCU: 0x1D7800, offset: 0x43BA6A, size: 0x8, addend: 0x0, symName: __ZN3spp16sparse_hashtableINSt3__14pairIKxNS1_6vectorINS2_IxbEENS1_9allocatorIS5_EEEEEExN2vg9wang_hashIxvEENS_15sparse_hash_mapIxS8_SC_NS1_8equal_toIxEENS_14libc_allocatorIS9_EEE9SelectKeyENSI_6SetKeyESF_SH_E13_resize_deltaEm, symObjAddr: 0x1C920, symBinAddr: 0x10001EEAC, symSize: 0x328 }
  - { offsetInCU: 0x1D80FC, offset: 0x43C366, size: 0x8, addend: 0x0, symName: __ZN3spp16sparse_hashtableINSt3__14pairIKxNS1_6vectorINS2_IxbEENS1_9allocatorIS5_EEEEEExN2vg9wang_hashIxvEENS_15sparse_hash_mapIxS8_SC_NS1_8equal_toIxEENS_14libc_allocatorIS9_EEE9SelectKeyENSI_6SetKeyESF_SH_E10_insert_atIS9_EERS9_RT_mb, symObjAddr: 0x1CC48, symBinAddr: 0x10001F1D4, symSize: 0xB8 }
  - { offsetInCU: 0x1D8262, offset: 0x43C4CC, size: 0x8, addend: 0x0, symName: __ZN3spp16sparse_hashtableINSt3__14pairIKxNS1_6vectorINS2_IxbEENS1_9allocatorIS5_EEEEEExN2vg9wang_hashIxvEENS_15sparse_hash_mapIxS8_SC_NS1_8equal_toIxEENS_14libc_allocatorIS9_EEE9SelectKeyENSI_6SetKeyESF_SH_E14find_or_insertINSI_12DefaultValueEEERS9_RS3_.cold.1, symObjAddr: 0x5DD2C, symBinAddr: 0x10002A884, symSize: 0x24 }
  - { offsetInCU: 0x1D82E0, offset: 0x43C54A, size: 0x8, addend: 0x0, symName: __ZN3spp16sparse_hashtableINSt3__14pairIKxNS1_6vectorINS2_IxbEENS1_9allocatorIS5_EEEEEExN2vg9wang_hashIxvEENS_15sparse_hash_mapIxS8_SC_NS1_8equal_toIxEENS_14libc_allocatorIS9_EEE9SelectKeyENSI_6SetKeyESF_SH_E13_maybe_shrinkEv, symObjAddr: 0x1CD00, symBinAddr: 0x10001F28C, symSize: 0x1B0 }
  - { offsetInCU: 0x1D898D, offset: 0x43CBF7, size: 0x8, addend: 0x0, symName: __ZN3spp16sparse_hashtableINSt3__14pairIKxNS1_6vectorINS2_IxbEENS1_9allocatorIS5_EEEEEExN2vg9wang_hashIxvEENS_15sparse_hash_mapIxS8_SC_NS1_8equal_toIxEENS_14libc_allocatorIS9_EEE9SelectKeyENSI_6SetKeyESF_SH_EC1ENSL_13MoveDontCopyTERSL_m, symObjAddr: 0x1CEB0, symBinAddr: 0x10001F43C, symSize: 0xEC }
  - { offsetInCU: 0x1D8998, offset: 0x43CC02, size: 0x8, addend: 0x0, symName: __ZN3spp16sparse_hashtableINSt3__14pairIKxNS1_6vectorINS2_IxbEENS1_9allocatorIS5_EEEEEExN2vg9wang_hashIxvEENS_15sparse_hash_mapIxS8_SC_NS1_8equal_toIxEENS_14libc_allocatorIS9_EEE9SelectKeyENSI_6SetKeyESF_SH_EC1ENSL_13MoveDontCopyTERSL_m, symObjAddr: 0x1CEB0, symBinAddr: 0x10001F43C, symSize: 0xEC }
  - { offsetInCU: 0x1D8CA8, offset: 0x43CF12, size: 0x8, addend: 0x0, symName: __ZN3spp11sparsetableINSt3__14pairIKxNS1_6vectorINS2_IxbEENS1_9allocatorIS5_EEEEEENS_14libc_allocatorIS9_EEE3setIS9_EERS9_mRT_, symObjAddr: 0x1D944, symBinAddr: 0x10001FED0, symSize: 0x128 }
  - { offsetInCU: 0x1D910C, offset: 0x43D376, size: 0x8, addend: 0x0, symName: __ZN3spp16sparse_hashtableINSt3__14pairIKxNS1_6vectorINS2_IxbEENS1_9allocatorIS5_EEEEEExN2vg9wang_hashIxvEENS_15sparse_hash_mapIxS8_SC_NS1_8equal_toIxEENS_14libc_allocatorIS9_EEE9SelectKeyENSI_6SetKeyESF_SH_E10_insert_atIS9_EERS9_RT_mb.cold.1, symObjAddr: 0x5DD50, symBinAddr: 0x10002A8A8, symSize: 0x24 }
  - { offsetInCU: 0x1D9124, offset: 0x43D38E, size: 0x8, addend: 0x0, symName: __ZN3spp16sparse_hashtableINSt3__14pairIKxNS1_6vectorINS2_IxbEENS1_9allocatorIS5_EEEEEExN2vg9wang_hashIxvEENS_15sparse_hash_mapIxS8_SC_NS1_8equal_toIxEENS_14libc_allocatorIS9_EEE9SelectKeyENSI_6SetKeyESF_SH_E13_maybe_shrinkEv.cold.2, symObjAddr: 0x5DD98, symBinAddr: 0x10002A8F0, symSize: 0x24 }
  - { offsetInCU: 0x1D913C, offset: 0x43D3A6, size: 0x8, addend: 0x0, symName: __ZN3spp16sparse_hashtableINSt3__14pairIKxNS1_6vectorINS2_IxbEENS1_9allocatorIS5_EEEEEExN2vg9wang_hashIxvEENS_15sparse_hash_mapIxS8_SC_NS1_8equal_toIxEENS_14libc_allocatorIS9_EEE9SelectKeyENSI_6SetKeyESF_SH_E13_maybe_shrinkEv.cold.1, symObjAddr: 0x5DD74, symBinAddr: 0x10002A8CC, symSize: 0x24 }
  - { offsetInCU: 0x1D91A6, offset: 0x43D410, size: 0x8, addend: 0x0, symName: __ZN3spp16sparse_hashtableINSt3__14pairIKxNS1_6vectorINS2_IxbEENS1_9allocatorIS5_EEEEEExN2vg9wang_hashIxvEENS_15sparse_hash_mapIxS8_SC_NS1_8equal_toIxEENS_14libc_allocatorIS9_EEE9SelectKeyENSI_6SetKeyESF_SH_E10_move_fromENSL_13MoveDontCopyTERSL_m, symObjAddr: 0x1CF9C, symBinAddr: 0x10001F528, symSize: 0x388 }
  - { offsetInCU: 0x1D9C5D, offset: 0x43DEC7, size: 0x8, addend: 0x0, symName: __ZN3spp16sparse_hashtableINSt3__14pairIKxNS1_6vectorINS2_IxbEENS1_9allocatorIS5_EEEEEExN2vg9wang_hashIxvEENS_15sparse_hash_mapIxS8_SC_NS1_8equal_toIxEENS_14libc_allocatorIS9_EEE9SelectKeyENSI_6SetKeyESF_SH_EC1ENSL_13MoveDontCopyTERSL_m.cold.1, symObjAddr: 0x5DDBC, symBinAddr: 0x10002A914, symSize: 0x80 }
  - { offsetInCU: 0x1DA121, offset: 0x43E38B, size: 0x8, addend: 0x0, symName: __ZN3spp11sparsetableINSt3__14pairIKxNS1_6vectorINS2_IxbEENS1_9allocatorIS5_EEEEEENS_14libc_allocatorIS9_EEE6resizeEm, symObjAddr: 0x1D430, symBinAddr: 0x10001F9BC, symSize: 0x15C }
  - { offsetInCU: 0x1DA594, offset: 0x43E7FE, size: 0x8, addend: 0x0, symName: __ZN3spp11sparsetableINSt3__14pairIKxNS1_6vectorINS2_IxbEENS1_9allocatorIS5_EEEEEENS_14libc_allocatorIS9_EEE4moveEmRS9_, symObjAddr: 0x1D58C, symBinAddr: 0x10001FB18, symSize: 0x100 }
  - { offsetInCU: 0x1DA94D, offset: 0x43EBB7, size: 0x8, addend: 0x0, symName: __ZN3spp11sparsegroupINSt3__14pairIKxNS1_6vectorINS2_IxbEENS1_9allocatorIS5_EEEEEENS_14libc_allocatorIS9_EEE8_set_auxIS9_EEvRSB_hRT_NS_17integral_constantIbLb0EEE, symObjAddr: 0x1D68C, symBinAddr: 0x10001FC18, symSize: 0x2B8 }
  - { offsetInCU: 0x1DA958, offset: 0x43EBC2, size: 0x8, addend: 0x0, symName: __ZN3spp16sparse_hashtableINSt3__14pairIKxNS1_6vectorINS2_IxbEENS1_9allocatorIS5_EEEEEExN2vg9wang_hashIxvEENS_15sparse_hash_mapIxS8_SC_NS1_8equal_toIxEENS_14libc_allocatorIS9_EEE9SelectKeyENSI_6SetKeyESF_SH_E10_move_fromENSL_13MoveDontCopyTERSL_m.cold.1, symObjAddr: 0x5DE3C, symBinAddr: 0x10002A994, symSize: 0x24 }
  - { offsetInCU: 0x1DA970, offset: 0x43EBDA, size: 0x8, addend: 0x0, symName: __ZN3spp16sparse_hashtableINSt3__14pairIKxNS1_6vectorINS2_IxbEENS1_9allocatorIS5_EEEEEExN2vg9wang_hashIxvEENS_15sparse_hash_mapIxS8_SC_NS1_8equal_toIxEENS_14libc_allocatorIS9_EEE9SelectKeyENSI_6SetKeyESF_SH_E10_move_fromENSL_13MoveDontCopyTERSL_m.cold.2, symObjAddr: 0x5DE60, symBinAddr: 0x10002A9B8, symSize: 0x24 }
  - { offsetInCU: 0x1DABE3, offset: 0x43EE4D, size: 0x8, addend: 0x0, symName: __ZN3spp11sparsegroupINSt3__14pairIKxNS1_6vectorINS2_IxbEENS1_9allocatorIS5_EEEEEENS_14libc_allocatorIS9_EEE8_set_auxIS9_EEvRSB_hRT_NS_17integral_constantIbLb0EEE, symObjAddr: 0x1D68C, symBinAddr: 0x10001FC18, symSize: 0x2B8 }
  - { offsetInCU: 0x1DB5B3, offset: 0x43F81D, size: 0x8, addend: 0x0, symName: __ZN3spp11sparsetableINSt3__14pairIKxNS1_6vectorINS2_IxbEENS1_9allocatorIS5_EEEEEENS_14libc_allocatorIS9_EEE4moveEmRS9_.cold.1, symObjAddr: 0x5DE84, symBinAddr: 0x10002A9DC, symSize: 0x24 }
  - { offsetInCU: 0x1DB7D8, offset: 0x43FA42, size: 0x8, addend: 0x0, symName: __ZN3spp11sparsetableINSt3__14pairIKxNS1_6vectorINS2_IxbEENS1_9allocatorIS5_EEEEEENS_14libc_allocatorIS9_EEE3setIS9_EERS9_mRT_.cold.1, symObjAddr: 0x5DEA8, symBinAddr: 0x10002AA00, symSize: 0x24 }
  - { offsetInCU: 0x1DC6E9, offset: 0x440953, size: 0x8, addend: 0x0, symName: __ZN3spp16sparse_hashtableINSt3__14pairIKNS2_IN2vg8NodeSideES4_EEPNS3_4EdgeEEES5_NS3_9wang_hashIS5_vEENS_15sparse_hash_mapIS5_S8_SB_NS1_8equal_toIS5_EENS_14libc_allocatorIS9_EEE9SelectKeyENSH_6SetKeyESE_SG_E14find_or_insertINSH_12DefaultValueEEERS9_RS6_, symObjAddr: 0x1E1F4, symBinAddr: 0x10001FFF8, symSize: 0x2EC }
  - { offsetInCU: 0x1DC6FC, offset: 0x440966, size: 0x8, addend: 0x0, symName: __ZN3spp16sparse_hashtableINSt3__14pairIKNS2_IN2vg8NodeSideES4_EEPNS3_4EdgeEEES5_NS3_9wang_hashIS5_vEENS_15sparse_hash_mapIS5_S8_SB_NS1_8equal_toIS5_EENS_14libc_allocatorIS9_EEE9SelectKeyENSH_6SetKeyESE_SG_E14find_or_insertINSH_12DefaultValueEEERS9_RS6_, symObjAddr: 0x1E1F4, symBinAddr: 0x10001FFF8, symSize: 0x2EC }
  - { offsetInCU: 0x1DD0A2, offset: 0x44130C, size: 0x8, addend: 0x0, symName: __ZN3spp16sparse_hashtableINSt3__14pairIKNS2_IN2vg8NodeSideES4_EEPNS3_4EdgeEEES5_NS3_9wang_hashIS5_vEENS_15sparse_hash_mapIS5_S8_SB_NS1_8equal_toIS5_EENS_14libc_allocatorIS9_EEE9SelectKeyENSH_6SetKeyESE_SG_E13_resize_deltaEm, symObjAddr: 0x1E4E0, symBinAddr: 0x1000202E4, symSize: 0x2EC }
  - { offsetInCU: 0x1DD7BB, offset: 0x441A25, size: 0x8, addend: 0x0, symName: __ZN3spp16sparse_hashtableINSt3__14pairIKNS2_IN2vg8NodeSideES4_EEPNS3_4EdgeEEES5_NS3_9wang_hashIS5_vEENS_15sparse_hash_mapIS5_S8_SB_NS1_8equal_toIS5_EENS_14libc_allocatorIS9_EEE9SelectKeyENSH_6SetKeyESE_SG_E13_resize_deltaEm, symObjAddr: 0x1E4E0, symBinAddr: 0x1000202E4, symSize: 0x2EC }
  - { offsetInCU: 0x1DDED7, offset: 0x442141, size: 0x8, addend: 0x0, symName: __ZNK3spp16sparse_hashtableINSt3__14pairIKNS2_IN2vg8NodeSideES4_EEPNS3_4EdgeEEES5_NS3_9wang_hashIS5_vEENS_15sparse_hash_mapIS5_S8_SB_NS1_8equal_toIS5_EENS_14libc_allocatorIS9_EEE9SelectKeyENSH_6SetKeyESE_SG_E14_find_positionERS6_, symObjAddr: 0x1F4B4, symBinAddr: 0x1000212B8, symSize: 0x22C }
  - { offsetInCU: 0x1DE4EE, offset: 0x442758, size: 0x8, addend: 0x0, symName: __ZN3spp11sparsetableINSt3__14pairIKNS2_IN2vg8NodeSideES4_EEPNS3_4EdgeEEENS_14libc_allocatorIS9_EEE3setIS9_EERS9_mRT_, symObjAddr: 0x1F6E0, symBinAddr: 0x1000214E4, symSize: 0x110 }
  - { offsetInCU: 0x1DE4F9, offset: 0x442763, size: 0x8, addend: 0x0, symName: __ZN3spp16sparse_hashtableINSt3__14pairIKNS2_IN2vg8NodeSideES4_EEPNS3_4EdgeEEES5_NS3_9wang_hashIS5_vEENS_15sparse_hash_mapIS5_S8_SB_NS1_8equal_toIS5_EENS_14libc_allocatorIS9_EEE9SelectKeyENSH_6SetKeyESE_SG_E10_insert_atIS9_EERS9_RT_mb, symObjAddr: 0x1E7CC, symBinAddr: 0x1000205D0, symSize: 0xBC }
  - { offsetInCU: 0x1DE65F, offset: 0x4428C9, size: 0x8, addend: 0x0, symName: __ZN3spp16sparse_hashtableINSt3__14pairIKNS2_IN2vg8NodeSideES4_EEPNS3_4EdgeEEES5_NS3_9wang_hashIS5_vEENS_15sparse_hash_mapIS5_S8_SB_NS1_8equal_toIS5_EENS_14libc_allocatorIS9_EEE9SelectKeyENSH_6SetKeyESE_SG_E14find_or_insertINSH_12DefaultValueEEERS9_RS6_.cold.2, symObjAddr: 0x5DEF0, symBinAddr: 0x10002AA48, symSize: 0x24 }
  - { offsetInCU: 0x1DE677, offset: 0x4428E1, size: 0x8, addend: 0x0, symName: __ZN3spp16sparse_hashtableINSt3__14pairIKNS2_IN2vg8NodeSideES4_EEPNS3_4EdgeEEES5_NS3_9wang_hashIS5_vEENS_15sparse_hash_mapIS5_S8_SB_NS1_8equal_toIS5_EENS_14libc_allocatorIS9_EEE9SelectKeyENSH_6SetKeyESE_SG_E14find_or_insertINSH_12DefaultValueEEERS9_RS6_.cold.1, symObjAddr: 0x5DECC, symBinAddr: 0x10002AA24, symSize: 0x24 }
  - { offsetInCU: 0x1DE81A, offset: 0x442A84, size: 0x8, addend: 0x0, symName: __ZN3spp16sparse_hashtableINSt3__14pairIKNS2_IN2vg8NodeSideES4_EEPNS3_4EdgeEEES5_NS3_9wang_hashIS5_vEENS_15sparse_hash_mapIS5_S8_SB_NS1_8equal_toIS5_EENS_14libc_allocatorIS9_EEE9SelectKeyENSH_6SetKeyESE_SG_E13_maybe_shrinkEv, symObjAddr: 0x1E888, symBinAddr: 0x10002068C, symSize: 0x174 }
  - { offsetInCU: 0x1DECE6, offset: 0x442F50, size: 0x8, addend: 0x0, symName: __ZN3spp16sparse_hashtableINSt3__14pairIKNS2_IN2vg8NodeSideES4_EEPNS3_4EdgeEEES5_NS3_9wang_hashIS5_vEENS_15sparse_hash_mapIS5_S8_SB_NS1_8equal_toIS5_EENS_14libc_allocatorIS9_EEE9SelectKeyENSH_6SetKeyESE_SG_EC1ENSK_13MoveDontCopyTERSK_m, symObjAddr: 0x1E9FC, symBinAddr: 0x100020800, symSize: 0xEC }
  - { offsetInCU: 0x1DECF1, offset: 0x442F5B, size: 0x8, addend: 0x0, symName: __ZN3spp16sparse_hashtableINSt3__14pairIKNS2_IN2vg8NodeSideES4_EEPNS3_4EdgeEEES5_NS3_9wang_hashIS5_vEENS_15sparse_hash_mapIS5_S8_SB_NS1_8equal_toIS5_EENS_14libc_allocatorIS9_EEE9SelectKeyENSH_6SetKeyESE_SG_EC1ENSK_13MoveDontCopyTERSK_m, symObjAddr: 0x1E9FC, symBinAddr: 0x100020800, symSize: 0xEC }
  - { offsetInCU: 0x1DF001, offset: 0x44326B, size: 0x8, addend: 0x0, symName: __ZN3spp11sparsetableINSt3__14pairIKNS2_IN2vg8NodeSideES4_EEPNS3_4EdgeEEENS_14libc_allocatorIS9_EEE3setIS9_EERS9_mRT_, symObjAddr: 0x1F6E0, symBinAddr: 0x1000214E4, symSize: 0x110 }
  - { offsetInCU: 0x1DF2F4, offset: 0x44355E, size: 0x8, addend: 0x0, symName: __ZN3spp16sparse_hashtableINSt3__14pairIKNS2_IN2vg8NodeSideES4_EEPNS3_4EdgeEEES5_NS3_9wang_hashIS5_vEENS_15sparse_hash_mapIS5_S8_SB_NS1_8equal_toIS5_EENS_14libc_allocatorIS9_EEE9SelectKeyENSH_6SetKeyESE_SG_E10_insert_atIS9_EERS9_RT_mb.cold.1, symObjAddr: 0x5DF14, symBinAddr: 0x10002AA6C, symSize: 0x24 }
  - { offsetInCU: 0x1DF338, offset: 0x4435A2, size: 0x8, addend: 0x0, symName: __ZN3spp16sparse_hashtableINSt3__14pairIKNS2_IN2vg8NodeSideES4_EEPNS3_4EdgeEEES5_NS3_9wang_hashIS5_vEENS_15sparse_hash_mapIS5_S8_SB_NS1_8equal_toIS5_EENS_14libc_allocatorIS9_EEE9SelectKeyENSH_6SetKeyESE_SG_E13_maybe_shrinkEv.cold.2, symObjAddr: 0x5DF5C, symBinAddr: 0x10002AAB4, symSize: 0x24 }
  - { offsetInCU: 0x1DF350, offset: 0x4435BA, size: 0x8, addend: 0x0, symName: __ZN3spp16sparse_hashtableINSt3__14pairIKNS2_IN2vg8NodeSideES4_EEPNS3_4EdgeEEES5_NS3_9wang_hashIS5_vEENS_15sparse_hash_mapIS5_S8_SB_NS1_8equal_toIS5_EENS_14libc_allocatorIS9_EEE9SelectKeyENSH_6SetKeyESE_SG_E13_maybe_shrinkEv.cold.1, symObjAddr: 0x5DF38, symBinAddr: 0x10002AA90, symSize: 0x24 }
  - { offsetInCU: 0x1DF3BA, offset: 0x443624, size: 0x8, addend: 0x0, symName: __ZN3spp16sparse_hashtableINSt3__14pairIKNS2_IN2vg8NodeSideES4_EEPNS3_4EdgeEEES5_NS3_9wang_hashIS5_vEENS_15sparse_hash_mapIS5_S8_SB_NS1_8equal_toIS5_EENS_14libc_allocatorIS9_EEE9SelectKeyENSH_6SetKeyESE_SG_E10_move_fromENSK_13MoveDontCopyTERSK_m, symObjAddr: 0x1EAE8, symBinAddr: 0x1000208EC, symSize: 0x494 }
  - { offsetInCU: 0x1E0067, offset: 0x4442D1, size: 0x8, addend: 0x0, symName: __ZN3spp16sparse_hashtableINSt3__14pairIKNS2_IN2vg8NodeSideES4_EEPNS3_4EdgeEEES5_NS3_9wang_hashIS5_vEENS_15sparse_hash_mapIS5_S8_SB_NS1_8equal_toIS5_EENS_14libc_allocatorIS9_EEE9SelectKeyENSH_6SetKeyESE_SG_EC1ENSK_13MoveDontCopyTERSK_m.cold.1, symObjAddr: 0x5DF80, symBinAddr: 0x10002AAD8, symSize: 0x4C }
  - { offsetInCU: 0x1E0466, offset: 0x4446D0, size: 0x8, addend: 0x0, symName: __ZN3spp11sparsetableINSt3__14pairIKNS2_IN2vg8NodeSideES4_EEPNS3_4EdgeEEENS_14libc_allocatorIS9_EEE6resizeEm, symObjAddr: 0x1F04C, symBinAddr: 0x100020E50, symSize: 0x128 }
  - { offsetInCU: 0x1E06F9, offset: 0x444963, size: 0x8, addend: 0x0, symName: __ZN3spp11sparsegroupINSt3__14pairIKNS2_IN2vg8NodeSideES4_EEPNS3_4EdgeEEENS_14libc_allocatorIS9_EEE8_set_auxIS9_EEvRSB_hRT_NS_17integral_constantIbLb0EEE, symObjAddr: 0x1F174, symBinAddr: 0x100020F78, symSize: 0x340 }
  - { offsetInCU: 0x1E0CC1, offset: 0x444F2B, size: 0x8, addend: 0x0, symName: __ZN3spp16sparse_hashtableINSt3__14pairIKNS2_IN2vg8NodeSideES4_EEPNS3_4EdgeEEES5_NS3_9wang_hashIS5_vEENS_15sparse_hash_mapIS5_S8_SB_NS1_8equal_toIS5_EENS_14libc_allocatorIS9_EEE9SelectKeyENSH_6SetKeyESE_SG_E10_move_fromENSK_13MoveDontCopyTERSK_m.cold.2, symObjAddr: 0x5DFF0, symBinAddr: 0x10002AB48, symSize: 0x24 }
  - { offsetInCU: 0x1E0CD9, offset: 0x444F43, size: 0x8, addend: 0x0, symName: __ZN3spp16sparse_hashtableINSt3__14pairIKNS2_IN2vg8NodeSideES4_EEPNS3_4EdgeEEES5_NS3_9wang_hashIS5_vEENS_15sparse_hash_mapIS5_S8_SB_NS1_8equal_toIS5_EENS_14libc_allocatorIS9_EEE9SelectKeyENSH_6SetKeyESE_SG_E10_move_fromENSK_13MoveDontCopyTERSK_m.cold.1, symObjAddr: 0x5DFCC, symBinAddr: 0x10002AB24, symSize: 0x24 }
  - { offsetInCU: 0x1E0D08, offset: 0x444F72, size: 0x8, addend: 0x0, symName: __ZN3spp16sparse_hashtableINSt3__14pairIKNS2_IN2vg8NodeSideES4_EEPNS3_4EdgeEEES5_NS3_9wang_hashIS5_vEENS_15sparse_hash_mapIS5_S8_SB_NS1_8equal_toIS5_EENS_14libc_allocatorIS9_EEE9SelectKeyENSH_6SetKeyESE_SG_E10_move_fromENSK_13MoveDontCopyTERSK_m.cold.3, symObjAddr: 0x5E014, symBinAddr: 0x10002AB6C, symSize: 0x24 }
  - { offsetInCU: 0x1E0F18, offset: 0x445182, size: 0x8, addend: 0x0, symName: __ZNK3spp16sparse_hashtableINSt3__14pairIKNS2_IN2vg8NodeSideES4_EEPNS3_4EdgeEEES5_NS3_9wang_hashIS5_vEENS_15sparse_hash_mapIS5_S8_SB_NS1_8equal_toIS5_EENS_14libc_allocatorIS9_EEE9SelectKeyENSH_6SetKeyESE_SG_E14_find_positionERS6_.cold.1, symObjAddr: 0x5E038, symBinAddr: 0x10002AB90, symSize: 0x24 }
  - { offsetInCU: 0x1E0FD0, offset: 0x44523A, size: 0x8, addend: 0x0, symName: __ZN3spp11sparsetableINSt3__14pairIKNS2_IN2vg8NodeSideES4_EEPNS3_4EdgeEEENS_14libc_allocatorIS9_EEE3setIS9_EERS9_mRT_.cold.1, symObjAddr: 0x5E05C, symBinAddr: 0x10002ABB4, symSize: 0x24 }
  - { offsetInCU: 0x1E59CC, offset: 0x449C36, size: 0x8, addend: 0x0, symName: __ZN2vg2VG12destroy_edgeERKNS_8NodeSideES3_, symObjAddr: 0x2D7D4, symBinAddr: 0x100024224, symSize: 0x160 }
  - { offsetInCU: 0x1E5C84, offset: 0x449EEE, size: 0x8, addend: 0x0, symName: __ZNSt3__16__treeINS_4pairIN2vg8NodeSideES3_EENS_4lessIS4_EENS_9allocatorIS4_EEE7destroyEPNS_11__tree_nodeIS4_PvEE, symObjAddr: 0x2DFA0, symBinAddr: 0x100024854, symSize: 0x40 }
  - { offsetInCU: 0x1E606D, offset: 0x44A2D7, size: 0x8, addend: 0x0, symName: __ZN3spp16sparse_hashtableINSt3__14pairIKNS2_IN2vg8NodeSideES4_EEPNS3_4EdgeEEES5_NS3_9wang_hashIS5_vEENS_15sparse_hash_mapIS5_S8_SB_NS1_8equal_toIS5_EENS_14libc_allocatorIS9_EEE9SelectKeyENSH_6SetKeyESE_SG_E5eraseERS6_, symObjAddr: 0x37500, symBinAddr: 0x100025208, symSize: 0x228 }
  - { offsetInCU: 0x1E66D4, offset: 0x44A93E, size: 0x8, addend: 0x0, symName: __ZN3spp11sparsetableINSt3__14pairIKNS2_IN2vg8NodeSideES4_EEPNS3_4EdgeEEENS_14libc_allocatorIS9_EEE6GrpPos5eraseERSC_, symObjAddr: 0x37728, symBinAddr: 0x100025430, symSize: 0xCC }
  - { offsetInCU: 0x1E66DF, offset: 0x44A949, size: 0x8, addend: 0x0, symName: __ZN3spp16sparse_hashtableINSt3__14pairIKxNS1_6vectorINS2_IxbEENS1_9allocatorIS5_EEEEEExN2vg9wang_hashIxvEENS_15sparse_hash_mapIxS8_SC_NS1_8equal_toIxEENS_14libc_allocatorIS9_EEE9SelectKeyENSI_6SetKeyESF_SH_E5eraseERS3_, symObjAddr: 0x37B34, symBinAddr: 0x10002583C, symSize: 0x148 }
  - { offsetInCU: 0x1E6ABD, offset: 0x44AD27, size: 0x8, addend: 0x0, symName: __ZN3spp11sparsetableINSt3__14pairIKxNS1_6vectorINS2_IxbEENS1_9allocatorIS5_EEEEEENS_14libc_allocatorIS9_EEE6GrpPos5eraseERSC_, symObjAddr: 0x37C7C, symBinAddr: 0x100025984, symSize: 0xE4 }
  - { offsetInCU: 0x1E7FEB, offset: 0x44C255, size: 0x8, addend: 0x0, symName: __ZN6google8protobuf8internal20RepeatedPtrFieldBase7MutableINS0_16RepeatedPtrFieldIN2vg4EdgeEE11TypeHandlerEEEPNT_4TypeEi.cold.1, symObjAddr: 0x5E0E8, symBinAddr: 0x10002ABD8, symSize: 0x3C }
  - { offsetInCU: 0x1E8040, offset: 0x44C2AA, size: 0x8, addend: 0x0, symName: __ZN6google8protobuf8internal20RepeatedPtrFieldBase7MutableINS0_16RepeatedPtrFieldIN2vg4EdgeEE11TypeHandlerEEEPNT_4TypeEi.cold.3, symObjAddr: 0x5E160, symBinAddr: 0x10002AC50, symSize: 0x40 }
  - { offsetInCU: 0x1E8095, offset: 0x44C2FF, size: 0x8, addend: 0x0, symName: __ZN6google8protobuf8internal20RepeatedPtrFieldBase7MutableINS0_16RepeatedPtrFieldIN2vg4EdgeEE11TypeHandlerEEEPNT_4TypeEi.cold.2, symObjAddr: 0x5E124, symBinAddr: 0x10002AC14, symSize: 0x3C }
  - { offsetInCU: 0x1E8144, offset: 0x44C3AE, size: 0x8, addend: 0x0, symName: __ZNK3spp16sparse_hashtableINSt3__14pairIKNS2_IN2vg8NodeSideES4_EEPNS3_4EdgeEEES5_NS3_9wang_hashIS5_vEENS_15sparse_hash_mapIS5_S8_SB_NS1_8equal_toIS5_EENS_14libc_allocatorIS9_EEE9SelectKeyENSH_6SetKeyESE_SG_E4findERS6_.cold.1, symObjAddr: 0x5E1A0, symBinAddr: 0x10002AC90, symSize: 0x24 }
  - { offsetInCU: 0x1E82FE, offset: 0x44C568, size: 0x8, addend: 0x0, symName: __ZNSt3__16__treeINS_4pairIN2vg8NodeSideES3_EENS_4lessIS4_EENS_9allocatorIS4_EEE25__emplace_unique_key_argsIS4_JS4_EEENS1_INS_15__tree_iteratorIS4_PNS_11__tree_nodeIS4_PvEElEEbEERKT_DpOT0_, symObjAddr: 0x38E18, symBinAddr: 0x100025F24, symSize: 0x180 }
  - { offsetInCU: 0x1E8655, offset: 0x44C8BF, size: 0x8, addend: 0x0, symName: __ZN3spp16sparse_hashtableINSt3__14pairIKPN2vg4NodeEiEES5_NS3_9wang_hashIS5_vEENS_15sparse_hash_mapIS5_iS9_NS1_8equal_toIS5_EENS_14libc_allocatorIS7_EEE9SelectKeyENSF_6SetKeyESC_SE_E5eraseERS6_, symObjAddr: 0x38F98, symBinAddr: 0x1000260A4, symSize: 0x148 }
  - { offsetInCU: 0x1E8A31, offset: 0x44CC9B, size: 0x8, addend: 0x0, symName: __ZN3spp11sparsetableINSt3__14pairIKPN2vg4NodeEiEENS_14libc_allocatorIS7_EEE6GrpPos5eraseERSA_, symObjAddr: 0x390E0, symBinAddr: 0x1000261EC, symSize: 0xCC }
  - { offsetInCU: 0x1E8A3C, offset: 0x44CCA6, size: 0x8, addend: 0x0, symName: __ZN3spp16sparse_hashtableINSt3__14pairIKxPN2vg4NodeEEExNS4_9wang_hashIxvEENS_15sparse_hash_mapIxS6_S9_NS1_8equal_toIxEENS_14libc_allocatorIS7_EEE9SelectKeyENSF_6SetKeyESC_SE_E5eraseERS3_, symObjAddr: 0x2D94C, symBinAddr: 0x100024384, symSize: 0x148 }
  - { offsetInCU: 0x1E8E1A, offset: 0x44D084, size: 0x8, addend: 0x0, symName: __ZN3spp11sparsetableINSt3__14pairIKxPN2vg4NodeEEENS_14libc_allocatorIS7_EEE6GrpPos5eraseERSA_, symObjAddr: 0x2DA94, symBinAddr: 0x1000244CC, symSize: 0xCC }
  - { offsetInCU: 0x1E8E25, offset: 0x44D08F, size: 0x8, addend: 0x0, symName: __ZN6google8protobuf8internal20RepeatedPtrFieldBase22UnsafeArenaReleaseLastINS0_16RepeatedPtrFieldIN2vg4NodeEE11TypeHandlerEEEPNT_4TypeEv, symObjAddr: 0x3927C, symBinAddr: 0x100026388, symSize: 0x88 }
  - { offsetInCU: 0x1E8FA2, offset: 0x44D20C, size: 0x8, addend: 0x0, symName: __ZNK6google8protobuf8internal20RepeatedPtrFieldBase3GetINS0_16RepeatedPtrFieldIN2vg4EdgeEE11TypeHandlerEEERKNT_4TypeEi.cold.1, symObjAddr: 0x5E1C4, symBinAddr: 0x10002ACB4, symSize: 0x3C }
  - { offsetInCU: 0x1E8FF9, offset: 0x44D263, size: 0x8, addend: 0x0, symName: __ZNK6google8protobuf8internal20RepeatedPtrFieldBase3GetINS0_16RepeatedPtrFieldIN2vg4EdgeEE11TypeHandlerEEERKNT_4TypeEi.cold.3, symObjAddr: 0x5E23C, symBinAddr: 0x10002AD2C, symSize: 0x40 }
  - { offsetInCU: 0x1E9050, offset: 0x44D2BA, size: 0x8, addend: 0x0, symName: __ZNK6google8protobuf8internal20RepeatedPtrFieldBase3GetINS0_16RepeatedPtrFieldIN2vg4EdgeEE11TypeHandlerEEERKNT_4TypeEi.cold.2, symObjAddr: 0x5E200, symBinAddr: 0x10002ACF0, symSize: 0x3C }
  - { offsetInCU: 0x1E9F25, offset: 0x44E18F, size: 0x8, addend: 0x0, symName: __ZN2vg8hash_mapIxxED1Ev, symObjAddr: 0x2B65C, symBinAddr: 0x100022930, symSize: 0x7C }
  - { offsetInCU: 0x1EA652, offset: 0x44E8BC, size: 0x8, addend: 0x0, symName: '__ZNSt3__110__function6__funcIZN2vg2VG17reassign_node_idsERKNS_8functionIFxRKxEEEE4$_20NS_9allocatorISB_EEFvPNS2_4NodeEEED1Ev', symObjAddr: 0x2B6D8, symBinAddr: 0x1000229AC, symSize: 0x4 }
  - { offsetInCU: 0x1EA67E, offset: 0x44E8E8, size: 0x8, addend: 0x0, symName: '__ZNSt3__110__function6__funcIZN2vg2VG17reassign_node_idsERKNS_8functionIFxRKxEEEE4$_20NS_9allocatorISB_EEFvPNS2_4NodeEEED0Ev', symObjAddr: 0x2B6DC, symBinAddr: 0x1000229B0, symSize: 0x4 }
  - { offsetInCU: 0x1EA735, offset: 0x44E99F, size: 0x8, addend: 0x0, symName: '__ZNKSt3__110__function6__funcIZN2vg2VG17reassign_node_idsERKNS_8functionIFxRKxEEEE4$_20NS_9allocatorISB_EEFvPNS2_4NodeEEE7__cloneEv', symObjAddr: 0x2B6E0, symBinAddr: 0x1000229B4, symSize: 0x34 }
  - { offsetInCU: 0x1EA87E, offset: 0x44EAE8, size: 0x8, addend: 0x0, symName: '__ZNKSt3__110__function6__funcIZN2vg2VG17reassign_node_idsERKNS_8functionIFxRKxEEEE4$_20NS_9allocatorISB_EEFvPNS2_4NodeEEE7__cloneEPNS0_6__baseISG_EE', symObjAddr: 0x2B714, symBinAddr: 0x1000229E8, symSize: 0x14 }
  - { offsetInCU: 0x1EA8EE, offset: 0x44EB58, size: 0x8, addend: 0x0, symName: '__ZNSt3__110__function6__funcIZN2vg2VG17reassign_node_idsERKNS_8functionIFxRKxEEEE4$_20NS_9allocatorISB_EEFvPNS2_4NodeEEE7destroyEv', symObjAddr: 0x2B728, symBinAddr: 0x1000229FC, symSize: 0x4 }
  - { offsetInCU: 0x1EA941, offset: 0x44EBAB, size: 0x8, addend: 0x0, symName: '__ZNSt3__110__function6__funcIZN2vg2VG17reassign_node_idsERKNS_8functionIFxRKxEEEE4$_20NS_9allocatorISB_EEFvPNS2_4NodeEEE18destroy_deallocateEv', symObjAddr: 0x2B72C, symBinAddr: 0x100022A00, symSize: 0x4 }
  - { offsetInCU: 0x1EA977, offset: 0x44EBE1, size: 0x8, addend: 0x0, symName: '__ZNSt3__110__function6__funcIZN2vg2VG17reassign_node_idsERKNS_8functionIFxRKxEEEE4$_20NS_9allocatorISB_EEFvPNS2_4NodeEEE18destroy_deallocateEv', symObjAddr: 0x2B72C, symBinAddr: 0x100022A00, symSize: 0x4 }
  - { offsetInCU: 0x1EA999, offset: 0x44EC03, size: 0x8, addend: 0x0, symName: '__ZNSt3__110__function6__funcIZN2vg2VG17reassign_node_idsERKNS_8functionIFxRKxEEEE4$_20NS_9allocatorISB_EEFvPNS2_4NodeEEE18destroy_deallocateEv', symObjAddr: 0x2B72C, symBinAddr: 0x100022A00, symSize: 0x4 }
  - { offsetInCU: 0x1EA9C4, offset: 0x44EC2E, size: 0x8, addend: 0x0, symName: '__ZNSt3__110__function6__funcIZN2vg2VG17reassign_node_idsERKNS_8functionIFxRKxEEEE4$_20NS_9allocatorISB_EEFvPNS2_4NodeEEE18destroy_deallocateEv', symObjAddr: 0x2B72C, symBinAddr: 0x100022A00, symSize: 0x4 }
  - { offsetInCU: 0x1EA9EA, offset: 0x44EC54, size: 0x8, addend: 0x0, symName: '__ZNSt3__110__function6__funcIZN2vg2VG17reassign_node_idsERKNS_8functionIFxRKxEEEE4$_20NS_9allocatorISB_EEFvPNS2_4NodeEEE18destroy_deallocateEv', symObjAddr: 0x2B72C, symBinAddr: 0x100022A00, symSize: 0x4 }
  - { offsetInCU: 0x1EAAE4, offset: 0x44ED4E, size: 0x8, addend: 0x0, symName: '__ZNSt3__110__function6__funcIZN2vg2VG17reassign_node_idsERKNS_8functionIFxRKxEEEE4$_20NS_9allocatorISB_EEFvPNS2_4NodeEEEclEOSF_', symObjAddr: 0x2B730, symBinAddr: 0x100022A04, symSize: 0x50 }
  - { offsetInCU: 0x1EAC27, offset: 0x44EE91, size: 0x8, addend: 0x0, symName: '__ZNKSt3__110__function6__funcIZN2vg2VG17reassign_node_idsERKNS_8functionIFxRKxEEEE4$_20NS_9allocatorISB_EEFvPNS2_4NodeEEE6targetERKSt9type_info', symObjAddr: 0x2B780, symBinAddr: 0x100022A54, symSize: 0x60 }
  - { offsetInCU: 0x1EAC32, offset: 0x44EE9C, size: 0x8, addend: 0x0, symName: '__ZNKSt3__110__function6__funcIZN2vg2VG17reassign_node_idsERKNS_8functionIFxRKxEEEE4$_20NS_9allocatorISB_EEFvPNS2_4NodeEEE6targetERKSt9type_info', symObjAddr: 0x2B780, symBinAddr: 0x100022A54, symSize: 0x60 }
  - { offsetInCU: 0x1EACB8, offset: 0x44EF22, size: 0x8, addend: 0x0, symName: '__ZNKSt3__110__function6__funcIZN2vg2VG17reassign_node_idsERKNS_8functionIFxRKxEEEE4$_20NS_9allocatorISB_EEFvPNS2_4NodeEEE11target_typeEv', symObjAddr: 0x2B7E0, symBinAddr: 0x100022AB4, symSize: 0xC }
  - { offsetInCU: 0x1EACDD, offset: 0x44EF47, size: 0x8, addend: 0x0, symName: '__ZNSt3__110__function6__funcIZN2vg2VG17reassign_node_idsERKNS_8functionIFxRKxEEEE4$_21NS_9allocatorISB_EEFvPNS2_4EdgeEEED1Ev', symObjAddr: 0x2B7EC, symBinAddr: 0x100022AC0, symSize: 0x4 }
  - { offsetInCU: 0x1EAD09, offset: 0x44EF73, size: 0x8, addend: 0x0, symName: '__ZNSt3__110__function6__funcIZN2vg2VG17reassign_node_idsERKNS_8functionIFxRKxEEEE4$_21NS_9allocatorISB_EEFvPNS2_4EdgeEEED0Ev', symObjAddr: 0x2B7F0, symBinAddr: 0x100022AC4, symSize: 0x4 }
  - { offsetInCU: 0x1EADC0, offset: 0x44F02A, size: 0x8, addend: 0x0, symName: '__ZNKSt3__110__function6__funcIZN2vg2VG17reassign_node_idsERKNS_8functionIFxRKxEEEE4$_21NS_9allocatorISB_EEFvPNS2_4EdgeEEE7__cloneEv', symObjAddr: 0x2B7F4, symBinAddr: 0x100022AC8, symSize: 0x34 }
  - { offsetInCU: 0x1EAF09, offset: 0x44F173, size: 0x8, addend: 0x0, symName: '__ZNKSt3__110__function6__funcIZN2vg2VG17reassign_node_idsERKNS_8functionIFxRKxEEEE4$_21NS_9allocatorISB_EEFvPNS2_4EdgeEEE7__cloneEPNS0_6__baseISG_EE', symObjAddr: 0x2B828, symBinAddr: 0x100022AFC, symSize: 0x14 }
  - { offsetInCU: 0x1EAF79, offset: 0x44F1E3, size: 0x8, addend: 0x0, symName: '__ZNSt3__110__function6__funcIZN2vg2VG17reassign_node_idsERKNS_8functionIFxRKxEEEE4$_21NS_9allocatorISB_EEFvPNS2_4EdgeEEE7destroyEv', symObjAddr: 0x2B83C, symBinAddr: 0x100022B10, symSize: 0x4 }
  - { offsetInCU: 0x1EAFCC, offset: 0x44F236, size: 0x8, addend: 0x0, symName: '__ZNSt3__110__function6__funcIZN2vg2VG17reassign_node_idsERKNS_8functionIFxRKxEEEE4$_21NS_9allocatorISB_EEFvPNS2_4EdgeEEE18destroy_deallocateEv', symObjAddr: 0x2B840, symBinAddr: 0x100022B14, symSize: 0x4 }
  - { offsetInCU: 0x1EB002, offset: 0x44F26C, size: 0x8, addend: 0x0, symName: '__ZNSt3__110__function6__funcIZN2vg2VG17reassign_node_idsERKNS_8functionIFxRKxEEEE4$_21NS_9allocatorISB_EEFvPNS2_4EdgeEEE18destroy_deallocateEv', symObjAddr: 0x2B840, symBinAddr: 0x100022B14, symSize: 0x4 }
  - { offsetInCU: 0x1EB024, offset: 0x44F28E, size: 0x8, addend: 0x0, symName: '__ZNSt3__110__function6__funcIZN2vg2VG17reassign_node_idsERKNS_8functionIFxRKxEEEE4$_21NS_9allocatorISB_EEFvPNS2_4EdgeEEE18destroy_deallocateEv', symObjAddr: 0x2B840, symBinAddr: 0x100022B14, symSize: 0x4 }
  - { offsetInCU: 0x1EB04F, offset: 0x44F2B9, size: 0x8, addend: 0x0, symName: '__ZNSt3__110__function6__funcIZN2vg2VG17reassign_node_idsERKNS_8functionIFxRKxEEEE4$_21NS_9allocatorISB_EEFvPNS2_4EdgeEEE18destroy_deallocateEv', symObjAddr: 0x2B840, symBinAddr: 0x100022B14, symSize: 0x4 }
  - { offsetInCU: 0x1EB075, offset: 0x44F2DF, size: 0x8, addend: 0x0, symName: '__ZNSt3__110__function6__funcIZN2vg2VG17reassign_node_idsERKNS_8functionIFxRKxEEEE4$_21NS_9allocatorISB_EEFvPNS2_4EdgeEEE18destroy_deallocateEv', symObjAddr: 0x2B840, symBinAddr: 0x100022B14, symSize: 0x4 }
  - { offsetInCU: 0x1EB11F, offset: 0x44F389, size: 0x8, addend: 0x0, symName: '__ZNSt3__110__function6__funcIZN2vg2VG17reassign_node_idsERKNS_8functionIFxRKxEEEE4$_21NS_9allocatorISB_EEFvPNS2_4EdgeEEEclEOSF_', symObjAddr: 0x2B844, symBinAddr: 0x100022B18, symSize: 0x7C }
  - { offsetInCU: 0x1EB38C, offset: 0x44F5F6, size: 0x8, addend: 0x0, symName: '__ZNKSt3__110__function6__funcIZN2vg2VG17reassign_node_idsERKNS_8functionIFxRKxEEEE4$_21NS_9allocatorISB_EEFvPNS2_4EdgeEEE6targetERKSt9type_info', symObjAddr: 0x2B8C0, symBinAddr: 0x100022B94, symSize: 0x60 }
  - { offsetInCU: 0x1EB397, offset: 0x44F601, size: 0x8, addend: 0x0, symName: '__ZNKSt3__110__function6__funcIZN2vg2VG17reassign_node_idsERKNS_8functionIFxRKxEEEE4$_21NS_9allocatorISB_EEFvPNS2_4EdgeEEE6targetERKSt9type_info', symObjAddr: 0x2B8C0, symBinAddr: 0x100022B94, symSize: 0x60 }
  - { offsetInCU: 0x1EB41D, offset: 0x44F687, size: 0x8, addend: 0x0, symName: '__ZNKSt3__110__function6__funcIZN2vg2VG17reassign_node_idsERKNS_8functionIFxRKxEEEE4$_21NS_9allocatorISB_EEFvPNS2_4EdgeEEE11target_typeEv', symObjAddr: 0x2B920, symBinAddr: 0x100022BF4, symSize: 0xC }
  - { offsetInCU: 0x1EB442, offset: 0x44F6AC, size: 0x8, addend: 0x0, symName: '__ZNSt3__110__function6__funcIZN2vg2VG11compact_idsERNS2_8hash_mapIxxEEE4$_22NS_9allocatorIS7_EEFvPNS2_4NodeEEED1Ev', symObjAddr: 0x2B92C, symBinAddr: 0x100022C00, symSize: 0x4 }
  - { offsetInCU: 0x1EB46E, offset: 0x44F6D8, size: 0x8, addend: 0x0, symName: '__ZNSt3__110__function6__funcIZN2vg2VG11compact_idsERNS2_8hash_mapIxxEEE4$_22NS_9allocatorIS7_EEFvPNS2_4NodeEEED0Ev', symObjAddr: 0x2B930, symBinAddr: 0x100022C04, symSize: 0x4 }
  - { offsetInCU: 0x1EB67E, offset: 0x44F8E8, size: 0x8, addend: 0x0, symName: '__ZNKSt3__110__function6__funcIZN2vg2VG11compact_idsERNS2_8hash_mapIxxEEE4$_22NS_9allocatorIS7_EEFvPNS2_4NodeEEE7__cloneEv', symObjAddr: 0x2B934, symBinAddr: 0x100022C08, symSize: 0x38 }
  - { offsetInCU: 0x1EB9A9, offset: 0x44FC13, size: 0x8, addend: 0x0, symName: '__ZNKSt3__110__function6__funcIZN2vg2VG11compact_idsERNS2_8hash_mapIxxEEE4$_22NS_9allocatorIS7_EEFvPNS2_4NodeEEE7__cloneEPNS0_6__baseISC_EE', symObjAddr: 0x2B96C, symBinAddr: 0x100022C40, symSize: 0x18 }
  - { offsetInCU: 0x1EB9E2, offset: 0x44FC4C, size: 0x8, addend: 0x0, symName: '__ZNKSt3__110__function6__funcIZN2vg2VG11compact_idsERNS2_8hash_mapIxxEEE4$_22NS_9allocatorIS7_EEFvPNS2_4NodeEEE7__cloneEPNS0_6__baseISC_EE', symObjAddr: 0x2B96C, symBinAddr: 0x100022C40, symSize: 0x18 }
  - { offsetInCU: 0x1EBA07, offset: 0x44FC71, size: 0x8, addend: 0x0, symName: '__ZNKSt3__110__function6__funcIZN2vg2VG11compact_idsERNS2_8hash_mapIxxEEE4$_22NS_9allocatorIS7_EEFvPNS2_4NodeEEE7__cloneEPNS0_6__baseISC_EE', symObjAddr: 0x2B96C, symBinAddr: 0x100022C40, symSize: 0x18 }
  - { offsetInCU: 0x1EBAEF, offset: 0x44FD59, size: 0x8, addend: 0x0, symName: '__ZNSt3__110__function6__funcIZN2vg2VG11compact_idsERNS2_8hash_mapIxxEEE4$_22NS_9allocatorIS7_EEFvPNS2_4NodeEEE7destroyEv', symObjAddr: 0x2B984, symBinAddr: 0x100022C58, symSize: 0x4 }
  - { offsetInCU: 0x1EBB42, offset: 0x44FDAC, size: 0x8, addend: 0x0, symName: '__ZNSt3__110__function6__funcIZN2vg2VG11compact_idsERNS2_8hash_mapIxxEEE4$_22NS_9allocatorIS7_EEFvPNS2_4NodeEEE18destroy_deallocateEv', symObjAddr: 0x2B988, symBinAddr: 0x100022C5C, symSize: 0x4 }
  - { offsetInCU: 0x1EBB78, offset: 0x44FDE2, size: 0x8, addend: 0x0, symName: '__ZNSt3__110__function6__funcIZN2vg2VG11compact_idsERNS2_8hash_mapIxxEEE4$_22NS_9allocatorIS7_EEFvPNS2_4NodeEEE18destroy_deallocateEv', symObjAddr: 0x2B988, symBinAddr: 0x100022C5C, symSize: 0x4 }
  - { offsetInCU: 0x1EBB9A, offset: 0x44FE04, size: 0x8, addend: 0x0, symName: '__ZNSt3__110__function6__funcIZN2vg2VG11compact_idsERNS2_8hash_mapIxxEEE4$_22NS_9allocatorIS7_EEFvPNS2_4NodeEEE18destroy_deallocateEv', symObjAddr: 0x2B988, symBinAddr: 0x100022C5C, symSize: 0x4 }
  - { offsetInCU: 0x1EBBC5, offset: 0x44FE2F, size: 0x8, addend: 0x0, symName: '__ZNSt3__110__function6__funcIZN2vg2VG11compact_idsERNS2_8hash_mapIxxEEE4$_22NS_9allocatorIS7_EEFvPNS2_4NodeEEE18destroy_deallocateEv', symObjAddr: 0x2B988, symBinAddr: 0x100022C5C, symSize: 0x4 }
  - { offsetInCU: 0x1EBBEB, offset: 0x44FE55, size: 0x8, addend: 0x0, symName: '__ZNSt3__110__function6__funcIZN2vg2VG11compact_idsERNS2_8hash_mapIxxEEE4$_22NS_9allocatorIS7_EEFvPNS2_4NodeEEE18destroy_deallocateEv', symObjAddr: 0x2B988, symBinAddr: 0x100022C5C, symSize: 0x4 }
  - { offsetInCU: 0x1EBCB7, offset: 0x44FF21, size: 0x8, addend: 0x0, symName: '__ZNSt3__110__function6__funcIZN2vg2VG11compact_idsERNS2_8hash_mapIxxEEE4$_22NS_9allocatorIS7_EEFvPNS2_4NodeEEEclEOSB_', symObjAddr: 0x2B98C, symBinAddr: 0x100022C60, symSize: 0x48 }
  - { offsetInCU: 0x1EBDD8, offset: 0x450042, size: 0x8, addend: 0x0, symName: __ZN3spp16sparse_hashtableINSt3__14pairIKxxEExN2vg9wang_hashIxvEENS_15sparse_hash_mapIxxS7_NS1_8equal_toIxEENS_14libc_allocatorIS4_EEE9SelectKeyENSD_6SetKeyESA_SC_E14find_or_insertINSD_12DefaultValueEEERS4_RS3_, symObjAddr: 0x2BA40, symBinAddr: 0x100022D14, symSize: 0x224 }
  - { offsetInCU: 0x1EC451, offset: 0x4506BB, size: 0x8, addend: 0x0, symName: __ZN3spp16sparse_hashtableINSt3__14pairIKxxEExN2vg9wang_hashIxvEENS_15sparse_hash_mapIxxS7_NS1_8equal_toIxEENS_14libc_allocatorIS4_EEE9SelectKeyENSD_6SetKeyESA_SC_E13_resize_deltaEm, symObjAddr: 0x2BC64, symBinAddr: 0x100022F38, symSize: 0x2EC }
  - { offsetInCU: 0x1EC465, offset: 0x4506CF, size: 0x8, addend: 0x0, symName: '__ZNKSt3__110__function6__funcIZN2vg2VG11compact_idsERNS2_8hash_mapIxxEEE4$_22NS_9allocatorIS7_EEFvPNS2_4NodeEEE6targetERKSt9type_info', symObjAddr: 0x2B9D4, symBinAddr: 0x100022CA8, symSize: 0x60 }
  - { offsetInCU: 0x1EC4EB, offset: 0x450755, size: 0x8, addend: 0x0, symName: '__ZNKSt3__110__function6__funcIZN2vg2VG11compact_idsERNS2_8hash_mapIxxEEE4$_22NS_9allocatorIS7_EEFvPNS2_4NodeEEE11target_typeEv', symObjAddr: 0x2BA34, symBinAddr: 0x100022D08, symSize: 0xC }
  - { offsetInCU: 0x1EC999, offset: 0x450C03, size: 0x8, addend: 0x0, symName: __ZN3spp16sparse_hashtableINSt3__14pairIKxxEExN2vg9wang_hashIxvEENS_15sparse_hash_mapIxxS7_NS1_8equal_toIxEENS_14libc_allocatorIS4_EEE9SelectKeyENSD_6SetKeyESA_SC_E13_resize_deltaEm, symObjAddr: 0x2BC64, symBinAddr: 0x100022F38, symSize: 0x2EC }
  - { offsetInCU: 0x1ED0B5, offset: 0x45131F, size: 0x8, addend: 0x0, symName: __ZNK3spp16sparse_hashtableINSt3__14pairIKxxEExN2vg9wang_hashIxvEENS_15sparse_hash_mapIxxS7_NS1_8equal_toIxEENS_14libc_allocatorIS4_EEE9SelectKeyENSD_6SetKeyESA_SC_E14_find_positionERS3_, symObjAddr: 0x2C904, symBinAddr: 0x100023BD8, symSize: 0x144 }
  - { offsetInCU: 0x1ED43D, offset: 0x4516A7, size: 0x8, addend: 0x0, symName: __ZN3spp11sparsetableINSt3__14pairIKxxEENS_14libc_allocatorIS4_EEE3setIS4_EERS4_mRT_, symObjAddr: 0x2CA48, symBinAddr: 0x100023D1C, symSize: 0x16C }
  - { offsetInCU: 0x1ED448, offset: 0x4516B2, size: 0x8, addend: 0x0, symName: __ZN3spp16sparse_hashtableINSt3__14pairIKxxEExN2vg9wang_hashIxvEENS_15sparse_hash_mapIxxS7_NS1_8equal_toIxEENS_14libc_allocatorIS4_EEE9SelectKeyENSD_6SetKeyESA_SC_E10_insert_atIS4_EERS4_RT_mb, symObjAddr: 0x2BF50, symBinAddr: 0x100023224, symSize: 0xB8 }
  - { offsetInCU: 0x1ED5AE, offset: 0x451818, size: 0x8, addend: 0x0, symName: __ZN3spp16sparse_hashtableINSt3__14pairIKxxEExN2vg9wang_hashIxvEENS_15sparse_hash_mapIxxS7_NS1_8equal_toIxEENS_14libc_allocatorIS4_EEE9SelectKeyENSD_6SetKeyESA_SC_E14find_or_insertINSD_12DefaultValueEEERS4_RS3_.cold.2, symObjAddr: 0x5E2A0, symBinAddr: 0x10002AD90, symSize: 0x24 }
  - { offsetInCU: 0x1ED5C6, offset: 0x451830, size: 0x8, addend: 0x0, symName: __ZN3spp16sparse_hashtableINSt3__14pairIKxxEExN2vg9wang_hashIxvEENS_15sparse_hash_mapIxxS7_NS1_8equal_toIxEENS_14libc_allocatorIS4_EEE9SelectKeyENSD_6SetKeyESA_SC_E14find_or_insertINSD_12DefaultValueEEERS4_RS3_.cold.1, symObjAddr: 0x5E27C, symBinAddr: 0x10002AD6C, symSize: 0x24 }
  - { offsetInCU: 0x1ED69D, offset: 0x451907, size: 0x8, addend: 0x0, symName: __ZN3spp16sparse_hashtableINSt3__14pairIKxxEExN2vg9wang_hashIxvEENS_15sparse_hash_mapIxxS7_NS1_8equal_toIxEENS_14libc_allocatorIS4_EEE9SelectKeyENSD_6SetKeyESA_SC_E13_maybe_shrinkEv, symObjAddr: 0x2C008, symBinAddr: 0x1000232DC, symSize: 0x174 }
  - { offsetInCU: 0x1EDB69, offset: 0x451DD3, size: 0x8, addend: 0x0, symName: __ZN3spp16sparse_hashtableINSt3__14pairIKxxEExN2vg9wang_hashIxvEENS_15sparse_hash_mapIxxS7_NS1_8equal_toIxEENS_14libc_allocatorIS4_EEE9SelectKeyENSD_6SetKeyESA_SC_EC1ENSG_13MoveDontCopyTERSG_m, symObjAddr: 0x2C17C, symBinAddr: 0x100023450, symSize: 0xEC }
  - { offsetInCU: 0x1EDB74, offset: 0x451DDE, size: 0x8, addend: 0x0, symName: __ZN3spp16sparse_hashtableINSt3__14pairIKxxEExN2vg9wang_hashIxvEENS_15sparse_hash_mapIxxS7_NS1_8equal_toIxEENS_14libc_allocatorIS4_EEE9SelectKeyENSD_6SetKeyESA_SC_EC1ENSG_13MoveDontCopyTERSG_m, symObjAddr: 0x2C17C, symBinAddr: 0x100023450, symSize: 0xEC }
  - { offsetInCU: 0x1EDE84, offset: 0x4520EE, size: 0x8, addend: 0x0, symName: __ZN3spp11sparsetableINSt3__14pairIKxxEENS_14libc_allocatorIS4_EEE3setIS4_EERS4_mRT_, symObjAddr: 0x2CA48, symBinAddr: 0x100023D1C, symSize: 0x16C }
  - { offsetInCU: 0x1EE21D, offset: 0x452487, size: 0x8, addend: 0x0, symName: '__ZNSt3__110__function6__funcIZN2vg2VG11compact_idsERNS2_8hash_mapIxxEEE4$_23NS_9allocatorIS7_EEFxRKxEED1Ev', symObjAddr: 0x2CBB4, symBinAddr: 0x100023E88, symSize: 0x4 }
  - { offsetInCU: 0x1EE231, offset: 0x45249B, size: 0x8, addend: 0x0, symName: __ZN3spp16sparse_hashtableINSt3__14pairIKxxEExN2vg9wang_hashIxvEENS_15sparse_hash_mapIxxS7_NS1_8equal_toIxEENS_14libc_allocatorIS4_EEE9SelectKeyENSD_6SetKeyESA_SC_E10_insert_atIS4_EERS4_RT_mb.cold.1, symObjAddr: 0x5E2C4, symBinAddr: 0x10002ADB4, symSize: 0x24 }
  - { offsetInCU: 0x1EE249, offset: 0x4524B3, size: 0x8, addend: 0x0, symName: __ZN3spp16sparse_hashtableINSt3__14pairIKxxEExN2vg9wang_hashIxvEENS_15sparse_hash_mapIxxS7_NS1_8equal_toIxEENS_14libc_allocatorIS4_EEE9SelectKeyENSD_6SetKeyESA_SC_E13_maybe_shrinkEv.cold.2, symObjAddr: 0x5E30C, symBinAddr: 0x10002ADFC, symSize: 0x24 }
  - { offsetInCU: 0x1EE261, offset: 0x4524CB, size: 0x8, addend: 0x0, symName: __ZN3spp16sparse_hashtableINSt3__14pairIKxxEExN2vg9wang_hashIxvEENS_15sparse_hash_mapIxxS7_NS1_8equal_toIxEENS_14libc_allocatorIS4_EEE9SelectKeyENSD_6SetKeyESA_SC_E13_maybe_shrinkEv.cold.1, symObjAddr: 0x5E2E8, symBinAddr: 0x10002ADD8, symSize: 0x24 }
  - { offsetInCU: 0x1EE2CB, offset: 0x452535, size: 0x8, addend: 0x0, symName: __ZN3spp16sparse_hashtableINSt3__14pairIKxxEExN2vg9wang_hashIxvEENS_15sparse_hash_mapIxxS7_NS1_8equal_toIxEENS_14libc_allocatorIS4_EEE9SelectKeyENSD_6SetKeyESA_SC_E10_move_fromENSG_13MoveDontCopyTERSG_m, symObjAddr: 0x2C268, symBinAddr: 0x10002353C, symSize: 0x350 }
  - { offsetInCU: 0x1EEBA5, offset: 0x452E0F, size: 0x8, addend: 0x0, symName: __ZN3spp16sparse_hashtableINSt3__14pairIKxxEExN2vg9wang_hashIxvEENS_15sparse_hash_mapIxxS7_NS1_8equal_toIxEENS_14libc_allocatorIS4_EEE9SelectKeyENSD_6SetKeyESA_SC_EC1ENSG_13MoveDontCopyTERSG_m.cold.1, symObjAddr: 0x5E330, symBinAddr: 0x10002AE20, symSize: 0x4C }
  - { offsetInCU: 0x1EEE88, offset: 0x4530F2, size: 0x8, addend: 0x0, symName: __ZN3spp16sparse_hashtableINSt3__14pairIKxxEExN2vg9wang_hashIxvEENS_15sparse_hash_mapIxxS7_NS1_8equal_toIxEENS_14libc_allocatorIS4_EEE9SelectKeyENSD_6SetKeyESA_SC_E5clearEv, symObjAddr: 0x2C5B8, symBinAddr: 0x10002388C, symSize: 0xD0 }
  - { offsetInCU: 0x1EF246, offset: 0x4534B0, size: 0x8, addend: 0x0, symName: __ZN3spp11sparsetableINSt3__14pairIKxxEENS_14libc_allocatorIS4_EEE6resizeEm, symObjAddr: 0x2C688, symBinAddr: 0x10002395C, symSize: 0x128 }
  - { offsetInCU: 0x1EF4D9, offset: 0x453743, size: 0x8, addend: 0x0, symName: __ZN3spp11sparsetableINSt3__14pairIKxxEENS_14libc_allocatorIS4_EEE4moveEmRS4_, symObjAddr: 0x2C7B0, symBinAddr: 0x100023A84, symSize: 0x154 }
  - { offsetInCU: 0x1EF7EF, offset: 0x453A59, size: 0x8, addend: 0x0, symName: __ZNK3spp16sparse_hashtableINSt3__14pairIKxxEExN2vg9wang_hashIxvEENS_15sparse_hash_mapIxxS7_NS1_8equal_toIxEENS_14libc_allocatorIS4_EEE9SelectKeyENSD_6SetKeyESA_SC_E14_find_positionERS3_, symObjAddr: 0x2C904, symBinAddr: 0x100023BD8, symSize: 0x144 }
  - { offsetInCU: 0x1EF7FA, offset: 0x453A64, size: 0x8, addend: 0x0, symName: __ZN3spp16sparse_hashtableINSt3__14pairIKxxEExN2vg9wang_hashIxvEENS_15sparse_hash_mapIxxS7_NS1_8equal_toIxEENS_14libc_allocatorIS4_EEE9SelectKeyENSD_6SetKeyESA_SC_E10_move_fromENSG_13MoveDontCopyTERSG_m.cold.1, symObjAddr: 0x5E37C, symBinAddr: 0x10002AE6C, symSize: 0x24 }
  - { offsetInCU: 0x1EF812, offset: 0x453A7C, size: 0x8, addend: 0x0, symName: __ZN3spp16sparse_hashtableINSt3__14pairIKxxEExN2vg9wang_hashIxvEENS_15sparse_hash_mapIxxS7_NS1_8equal_toIxEENS_14libc_allocatorIS4_EEE9SelectKeyENSD_6SetKeyESA_SC_E10_move_fromENSG_13MoveDontCopyTERSG_m.cold.2, symObjAddr: 0x5E3A0, symBinAddr: 0x10002AE90, symSize: 0x24 }
  - { offsetInCU: 0x1EFAFE, offset: 0x453D68, size: 0x8, addend: 0x0, symName: __ZN3spp11sparsetableINSt3__14pairIKxxEENS_14libc_allocatorIS4_EEE4moveEmRS4_.cold.1, symObjAddr: 0x5E3C4, symBinAddr: 0x10002AEB4, symSize: 0x24 }
  - { offsetInCU: 0x1EFB16, offset: 0x453D80, size: 0x8, addend: 0x0, symName: __ZNK3spp16sparse_hashtableINSt3__14pairIKxxEExN2vg9wang_hashIxvEENS_15sparse_hash_mapIxxS7_NS1_8equal_toIxEENS_14libc_allocatorIS4_EEE9SelectKeyENSD_6SetKeyESA_SC_E14_find_positionERS3_.cold.1, symObjAddr: 0x5E3E8, symBinAddr: 0x10002AED8, symSize: 0x24 }
  - { offsetInCU: 0x1EFB44, offset: 0x453DAE, size: 0x8, addend: 0x0, symName: __ZN3spp11sparsetableINSt3__14pairIKxxEENS_14libc_allocatorIS4_EEE3setIS4_EERS4_mRT_.cold.1, symObjAddr: 0x5E40C, symBinAddr: 0x10002AEFC, symSize: 0x24 }
  - { offsetInCU: 0x1EFB5C, offset: 0x453DC6, size: 0x8, addend: 0x0, symName: '__ZNSt3__110__function6__funcIZN2vg2VG11compact_idsERNS2_8hash_mapIxxEEE4$_23NS_9allocatorIS7_EEFxRKxEED1Ev', symObjAddr: 0x2CBB4, symBinAddr: 0x100023E88, symSize: 0x4 }
  - { offsetInCU: 0x1EFB88, offset: 0x453DF2, size: 0x8, addend: 0x0, symName: '__ZNSt3__110__function6__funcIZN2vg2VG11compact_idsERNS2_8hash_mapIxxEEE4$_23NS_9allocatorIS7_EEFxRKxEED0Ev', symObjAddr: 0x2CBB8, symBinAddr: 0x100023E8C, symSize: 0x4 }
  - { offsetInCU: 0x1EFC3F, offset: 0x453EA9, size: 0x8, addend: 0x0, symName: '__ZNKSt3__110__function6__funcIZN2vg2VG11compact_idsERNS2_8hash_mapIxxEEE4$_23NS_9allocatorIS7_EEFxRKxEE7__cloneEv', symObjAddr: 0x2CBBC, symBinAddr: 0x100023E90, symSize: 0x34 }
  - { offsetInCU: 0x1EFD88, offset: 0x453FF2, size: 0x8, addend: 0x0, symName: '__ZNKSt3__110__function6__funcIZN2vg2VG11compact_idsERNS2_8hash_mapIxxEEE4$_23NS_9allocatorIS7_EEFxRKxEE7__cloneEPNS0_6__baseISC_EE', symObjAddr: 0x2CBF0, symBinAddr: 0x100023EC4, symSize: 0x14 }
  - { offsetInCU: 0x1EFDF8, offset: 0x454062, size: 0x8, addend: 0x0, symName: '__ZNSt3__110__function6__funcIZN2vg2VG11compact_idsERNS2_8hash_mapIxxEEE4$_23NS_9allocatorIS7_EEFxRKxEE7destroyEv', symObjAddr: 0x2CC04, symBinAddr: 0x100023ED8, symSize: 0x4 }
  - { offsetInCU: 0x1EFE4B, offset: 0x4540B5, size: 0x8, addend: 0x0, symName: '__ZNSt3__110__function6__funcIZN2vg2VG11compact_idsERNS2_8hash_mapIxxEEE4$_23NS_9allocatorIS7_EEFxRKxEE18destroy_deallocateEv', symObjAddr: 0x2CC08, symBinAddr: 0x100023EDC, symSize: 0x4 }
  - { offsetInCU: 0x1EFE81, offset: 0x4540EB, size: 0x8, addend: 0x0, symName: '__ZNSt3__110__function6__funcIZN2vg2VG11compact_idsERNS2_8hash_mapIxxEEE4$_23NS_9allocatorIS7_EEFxRKxEE18destroy_deallocateEv', symObjAddr: 0x2CC08, symBinAddr: 0x100023EDC, symSize: 0x4 }
  - { offsetInCU: 0x1EFEA3, offset: 0x45410D, size: 0x8, addend: 0x0, symName: '__ZNSt3__110__function6__funcIZN2vg2VG11compact_idsERNS2_8hash_mapIxxEEE4$_23NS_9allocatorIS7_EEFxRKxEE18destroy_deallocateEv', symObjAddr: 0x2CC08, symBinAddr: 0x100023EDC, symSize: 0x4 }
  - { offsetInCU: 0x1EFECE, offset: 0x454138, size: 0x8, addend: 0x0, symName: '__ZNSt3__110__function6__funcIZN2vg2VG11compact_idsERNS2_8hash_mapIxxEEE4$_23NS_9allocatorIS7_EEFxRKxEE18destroy_deallocateEv', symObjAddr: 0x2CC08, symBinAddr: 0x100023EDC, symSize: 0x4 }
  - { offsetInCU: 0x1EFEF4, offset: 0x45415E, size: 0x8, addend: 0x0, symName: '__ZNSt3__110__function6__funcIZN2vg2VG11compact_idsERNS2_8hash_mapIxxEEE4$_23NS_9allocatorIS7_EEFxRKxEE18destroy_deallocateEv', symObjAddr: 0x2CC08, symBinAddr: 0x100023EDC, symSize: 0x4 }
  - { offsetInCU: 0x1F0092, offset: 0x4542FC, size: 0x8, addend: 0x0, symName: '__ZNSt3__110__function6__funcIZN2vg2VG11compact_idsERNS2_8hash_mapIxxEEE4$_23NS_9allocatorIS7_EEFxRKxEEclESB_', symObjAddr: 0x2CC0C, symBinAddr: 0x100023EE0, symSize: 0x114 }
  - { offsetInCU: 0x1F0581, offset: 0x4547EB, size: 0x8, addend: 0x0, symName: '__ZNKSt3__110__function6__funcIZN2vg2VG11compact_idsERNS2_8hash_mapIxxEEE4$_23NS_9allocatorIS7_EEFxRKxEE6targetERKSt9type_info', symObjAddr: 0x2CD20, symBinAddr: 0x100023FF4, symSize: 0x60 }
  - { offsetInCU: 0x1F0607, offset: 0x454871, size: 0x8, addend: 0x0, symName: '__ZNKSt3__110__function6__funcIZN2vg2VG11compact_idsERNS2_8hash_mapIxxEEE4$_23NS_9allocatorIS7_EEFxRKxEE11target_typeEv', symObjAddr: 0x2CD80, symBinAddr: 0x100024054, symSize: 0xC }
  - { offsetInCU: 0x1F0636, offset: 0x4548A0, size: 0x8, addend: 0x0, symName: '__ZNSt3__110__function6__funcIZN2vg2VG18increment_node_idsExE4$_24NS_9allocatorIS4_EEFvPNS2_4NodeEEED1Ev', symObjAddr: 0x2D050, symBinAddr: 0x100024060, symSize: 0x4 }
  - { offsetInCU: 0x1F0662, offset: 0x4548CC, size: 0x8, addend: 0x0, symName: '__ZNSt3__110__function6__funcIZN2vg2VG18increment_node_idsExE4$_24NS_9allocatorIS4_EEFvPNS2_4NodeEEED0Ev', symObjAddr: 0x2D054, symBinAddr: 0x100024064, symSize: 0x4 }
  - { offsetInCU: 0x1F0719, offset: 0x454983, size: 0x8, addend: 0x0, symName: '__ZNKSt3__110__function6__funcIZN2vg2VG18increment_node_idsExE4$_24NS_9allocatorIS4_EEFvPNS2_4NodeEEE7__cloneEv', symObjAddr: 0x2D058, symBinAddr: 0x100024068, symSize: 0x34 }
  - { offsetInCU: 0x1F0862, offset: 0x454ACC, size: 0x8, addend: 0x0, symName: '__ZNKSt3__110__function6__funcIZN2vg2VG18increment_node_idsExE4$_24NS_9allocatorIS4_EEFvPNS2_4NodeEEE7__cloneEPNS0_6__baseIS9_EE', symObjAddr: 0x2D08C, symBinAddr: 0x10002409C, symSize: 0x14 }
  - { offsetInCU: 0x1F08D2, offset: 0x454B3C, size: 0x8, addend: 0x0, symName: '__ZNSt3__110__function6__funcIZN2vg2VG18increment_node_idsExE4$_24NS_9allocatorIS4_EEFvPNS2_4NodeEEE7destroyEv', symObjAddr: 0x2D0A0, symBinAddr: 0x1000240B0, symSize: 0x4 }
  - { offsetInCU: 0x1F0925, offset: 0x454B8F, size: 0x8, addend: 0x0, symName: '__ZNSt3__110__function6__funcIZN2vg2VG18increment_node_idsExE4$_24NS_9allocatorIS4_EEFvPNS2_4NodeEEE18destroy_deallocateEv', symObjAddr: 0x2D0A4, symBinAddr: 0x1000240B4, symSize: 0x4 }
  - { offsetInCU: 0x1F095B, offset: 0x454BC5, size: 0x8, addend: 0x0, symName: '__ZNSt3__110__function6__funcIZN2vg2VG18increment_node_idsExE4$_24NS_9allocatorIS4_EEFvPNS2_4NodeEEE18destroy_deallocateEv', symObjAddr: 0x2D0A4, symBinAddr: 0x1000240B4, symSize: 0x4 }
  - { offsetInCU: 0x1F097D, offset: 0x454BE7, size: 0x8, addend: 0x0, symName: '__ZNSt3__110__function6__funcIZN2vg2VG18increment_node_idsExE4$_24NS_9allocatorIS4_EEFvPNS2_4NodeEEE18destroy_deallocateEv', symObjAddr: 0x2D0A4, symBinAddr: 0x1000240B4, symSize: 0x4 }
  - { offsetInCU: 0x1F09A8, offset: 0x454C12, size: 0x8, addend: 0x0, symName: '__ZNSt3__110__function6__funcIZN2vg2VG18increment_node_idsExE4$_24NS_9allocatorIS4_EEFvPNS2_4NodeEEE18destroy_deallocateEv', symObjAddr: 0x2D0A4, symBinAddr: 0x1000240B4, symSize: 0x4 }
  - { offsetInCU: 0x1F09CE, offset: 0x454C38, size: 0x8, addend: 0x0, symName: '__ZNSt3__110__function6__funcIZN2vg2VG18increment_node_idsExE4$_24NS_9allocatorIS4_EEFvPNS2_4NodeEEE18destroy_deallocateEv', symObjAddr: 0x2D0A4, symBinAddr: 0x1000240B4, symSize: 0x4 }
  - { offsetInCU: 0x1F0A78, offset: 0x454CE2, size: 0x8, addend: 0x0, symName: '__ZNSt3__110__function6__funcIZN2vg2VG18increment_node_idsExE4$_24NS_9allocatorIS4_EEFvPNS2_4NodeEEEclEOS8_', symObjAddr: 0x2D0A8, symBinAddr: 0x1000240B8, symSize: 0x18 }
  - { offsetInCU: 0x1F0B92, offset: 0x454DFC, size: 0x8, addend: 0x0, symName: '__ZNKSt3__110__function6__funcIZN2vg2VG18increment_node_idsExE4$_24NS_9allocatorIS4_EEFvPNS2_4NodeEEE6targetERKSt9type_info', symObjAddr: 0x2D0C0, symBinAddr: 0x1000240D0, symSize: 0x60 }
  - { offsetInCU: 0x1F0C18, offset: 0x454E82, size: 0x8, addend: 0x0, symName: '__ZNKSt3__110__function6__funcIZN2vg2VG18increment_node_idsExE4$_24NS_9allocatorIS4_EEFvPNS2_4NodeEEE11target_typeEv', symObjAddr: 0x2D120, symBinAddr: 0x100024130, symSize: 0xC }
  - { offsetInCU: 0x1F0C3D, offset: 0x454EA7, size: 0x8, addend: 0x0, symName: '__ZNSt3__110__function6__funcIZN2vg2VG18increment_node_idsExE4$_25NS_9allocatorIS4_EEFvPNS2_4EdgeEEED1Ev', symObjAddr: 0x2D12C, symBinAddr: 0x10002413C, symSize: 0x4 }
  - { offsetInCU: 0x1F0C69, offset: 0x454ED3, size: 0x8, addend: 0x0, symName: '__ZNSt3__110__function6__funcIZN2vg2VG18increment_node_idsExE4$_25NS_9allocatorIS4_EEFvPNS2_4EdgeEEED0Ev', symObjAddr: 0x2D130, symBinAddr: 0x100024140, symSize: 0x4 }
  - { offsetInCU: 0x1F0D20, offset: 0x454F8A, size: 0x8, addend: 0x0, symName: '__ZNKSt3__110__function6__funcIZN2vg2VG18increment_node_idsExE4$_25NS_9allocatorIS4_EEFvPNS2_4EdgeEEE7__cloneEv', symObjAddr: 0x2D134, symBinAddr: 0x100024144, symSize: 0x34 }
  - { offsetInCU: 0x1F0E69, offset: 0x4550D3, size: 0x8, addend: 0x0, symName: '__ZNKSt3__110__function6__funcIZN2vg2VG18increment_node_idsExE4$_25NS_9allocatorIS4_EEFvPNS2_4EdgeEEE7__cloneEPNS0_6__baseIS9_EE', symObjAddr: 0x2D168, symBinAddr: 0x100024178, symSize: 0x14 }
  - { offsetInCU: 0x1F0ED9, offset: 0x455143, size: 0x8, addend: 0x0, symName: '__ZNSt3__110__function6__funcIZN2vg2VG18increment_node_idsExE4$_25NS_9allocatorIS4_EEFvPNS2_4EdgeEEE7destroyEv', symObjAddr: 0x2D17C, symBinAddr: 0x10002418C, symSize: 0x4 }
  - { offsetInCU: 0x1F0F2C, offset: 0x455196, size: 0x8, addend: 0x0, symName: '__ZNSt3__110__function6__funcIZN2vg2VG18increment_node_idsExE4$_25NS_9allocatorIS4_EEFvPNS2_4EdgeEEE18destroy_deallocateEv', symObjAddr: 0x2D180, symBinAddr: 0x100024190, symSize: 0x4 }
  - { offsetInCU: 0x1F0F62, offset: 0x4551CC, size: 0x8, addend: 0x0, symName: '__ZNSt3__110__function6__funcIZN2vg2VG18increment_node_idsExE4$_25NS_9allocatorIS4_EEFvPNS2_4EdgeEEE18destroy_deallocateEv', symObjAddr: 0x2D180, symBinAddr: 0x100024190, symSize: 0x4 }
  - { offsetInCU: 0x1F0F84, offset: 0x4551EE, size: 0x8, addend: 0x0, symName: '__ZNSt3__110__function6__funcIZN2vg2VG18increment_node_idsExE4$_25NS_9allocatorIS4_EEFvPNS2_4EdgeEEE18destroy_deallocateEv', symObjAddr: 0x2D180, symBinAddr: 0x100024190, symSize: 0x4 }
  - { offsetInCU: 0x1F0FAF, offset: 0x455219, size: 0x8, addend: 0x0, symName: '__ZNSt3__110__function6__funcIZN2vg2VG18increment_node_idsExE4$_25NS_9allocatorIS4_EEFvPNS2_4EdgeEEE18destroy_deallocateEv', symObjAddr: 0x2D180, symBinAddr: 0x100024190, symSize: 0x4 }
  - { offsetInCU: 0x1F0FD5, offset: 0x45523F, size: 0x8, addend: 0x0, symName: '__ZNSt3__110__function6__funcIZN2vg2VG18increment_node_idsExE4$_25NS_9allocatorIS4_EEFvPNS2_4EdgeEEE18destroy_deallocateEv', symObjAddr: 0x2D180, symBinAddr: 0x100024190, symSize: 0x4 }
  - { offsetInCU: 0x1F107F, offset: 0x4552E9, size: 0x8, addend: 0x0, symName: '__ZNSt3__110__function6__funcIZN2vg2VG18increment_node_idsExE4$_25NS_9allocatorIS4_EEFvPNS2_4EdgeEEEclEOS8_', symObjAddr: 0x2D184, symBinAddr: 0x100024194, symSize: 0x24 }
  - { offsetInCU: 0x1F1205, offset: 0x45546F, size: 0x8, addend: 0x0, symName: '__ZNKSt3__110__function6__funcIZN2vg2VG18increment_node_idsExE4$_25NS_9allocatorIS4_EEFvPNS2_4EdgeEEE6targetERKSt9type_info', symObjAddr: 0x2D1A8, symBinAddr: 0x1000241B8, symSize: 0x60 }
  - { offsetInCU: 0x1F128B, offset: 0x4554F5, size: 0x8, addend: 0x0, symName: '__ZNKSt3__110__function6__funcIZN2vg2VG18increment_node_idsExE4$_25NS_9allocatorIS4_EEFvPNS2_4EdgeEEE11target_typeEv', symObjAddr: 0x2D208, symBinAddr: 0x100024218, symSize: 0xC }
  - { offsetInCU: 0x1F12B0, offset: 0x45551A, size: 0x8, addend: 0x0, symName: __ZN3spp11sparsetableINSt3__14pairIKxPN2vg4NodeEEENS_14libc_allocatorIS7_EEE6GrpPos5eraseERSA_, symObjAddr: 0x2DA94, symBinAddr: 0x1000244CC, symSize: 0xCC }
  - { offsetInCU: 0x1F14B0, offset: 0x45571A, size: 0x8, addend: 0x0, symName: __ZN3spp11sparsegroupINSt3__14pairIKxPN2vg4NodeEEENS_14libc_allocatorIS7_EEE16_group_erase_auxERS9_hNS_17integral_constantIbLb1EEE, symObjAddr: 0x2DB60, symBinAddr: 0x100024598, symSize: 0xD0 }
  - { offsetInCU: 0x1F14BB, offset: 0x455725, size: 0x8, addend: 0x0, symName: __ZN3spp16sparse_hashtableINSt3__14pairIKxPN2vg4NodeEEExNS4_9wang_hashIxvEENS_15sparse_hash_mapIxS6_S9_NS1_8equal_toIxEENS_14libc_allocatorIS7_EEE9SelectKeyENSF_6SetKeyESC_SE_E5eraseERS3_.cold.1, symObjAddr: 0x5E47C, symBinAddr: 0x10002AF20, symSize: 0x24 }
  - { offsetInCU: 0x1F1589, offset: 0x4557F3, size: 0x8, addend: 0x0, symName: __ZN3spp11sparsegroupINSt3__14pairIKxPN2vg4NodeEEENS_14libc_allocatorIS7_EEE16_group_erase_auxERS9_hNS_17integral_constantIbLb1EEE, symObjAddr: 0x2DB60, symBinAddr: 0x100024598, symSize: 0xD0 }
  - { offsetInCU: 0x1F1725, offset: 0x45598F, size: 0x8, addend: 0x0, symName: __ZN3spp16sparse_hashtableINSt3__14pairIKxPN2vg4NodeEEExNS4_9wang_hashIxvEENS_15sparse_hash_mapIxS6_S9_NS1_8equal_toIxEENS_14libc_allocatorIS7_EEE9SelectKeyENSF_6SetKeyESC_SE_E4findERS3_, symObjAddr: 0x2DC30, symBinAddr: 0x100024668, symSize: 0x1EC }
  - { offsetInCU: 0x1F1730, offset: 0x45599A, size: 0x8, addend: 0x0, symName: __ZN3spp11sparsetableINSt3__14pairIKxPN2vg4NodeEEENS_14libc_allocatorIS7_EEE6GrpPos5eraseERSA_.cold.1, symObjAddr: 0x5E4A0, symBinAddr: 0x10002AF44, symSize: 0x24 }
  - { offsetInCU: 0x1F1748, offset: 0x4559B2, size: 0x8, addend: 0x0, symName: __ZN3spp11sparsegroupINSt3__14pairIKxPN2vg4NodeEEENS_14libc_allocatorIS7_EEE16_group_erase_auxERS9_hNS_17integral_constantIbLb1EEE.cold.1, symObjAddr: 0x5E4C4, symBinAddr: 0x10002AF68, symSize: 0x24 }
  - { offsetInCU: 0x1F1760, offset: 0x4559CA, size: 0x8, addend: 0x0, symName: __ZN3spp11sparsegroupINSt3__14pairIKxPN2vg4NodeEEENS_14libc_allocatorIS7_EEE16_group_erase_auxERS9_hNS_17integral_constantIbLb1EEE.cold.2, symObjAddr: 0x5E4E8, symBinAddr: 0x10002AF8C, symSize: 0x24 }
  - { offsetInCU: 0x1F1778, offset: 0x4559E2, size: 0x8, addend: 0x0, symName: __ZN3spp16sparse_hashtableINSt3__14pairIKxPN2vg4NodeEEExNS4_9wang_hashIxvEENS_15sparse_hash_mapIxS6_S9_NS1_8equal_toIxEENS_14libc_allocatorIS7_EEE9SelectKeyENSF_6SetKeyESC_SE_E4findERS3_.cold.1, symObjAddr: 0x5E50C, symBinAddr: 0x10002AFB0, symSize: 0x24 }
  - { offsetInCU: 0x1F18BE, offset: 0x455B28, size: 0x8, addend: 0x0, symName: '__ZNSt3__110__function6__funcIZN11handlegraph20BoolReturningWrapperIZN2vg2VG14apply_orderingERKNS_6vectorINS2_8handle_tENS_9allocatorIS7_EEEEbE4$_26Lb0EE4wrapERKSD_EUlDpOT_E_NS8_ISK_EEFbRKS7_EED1Ev', symObjAddr: 0x2E070, symBinAddr: 0x100024894, symSize: 0x4 }
  - { offsetInCU: 0x1F18EA, offset: 0x455B54, size: 0x8, addend: 0x0, symName: '__ZNSt3__110__function6__funcIZN11handlegraph20BoolReturningWrapperIZN2vg2VG14apply_orderingERKNS_6vectorINS2_8handle_tENS_9allocatorIS7_EEEEbE4$_26Lb0EE4wrapERKSD_EUlDpOT_E_NS8_ISK_EEFbRKS7_EED0Ev', symObjAddr: 0x2E074, symBinAddr: 0x100024898, symSize: 0x4 }
  - { offsetInCU: 0x1F19A1, offset: 0x455C0B, size: 0x8, addend: 0x0, symName: '__ZNKSt3__110__function6__funcIZN11handlegraph20BoolReturningWrapperIZN2vg2VG14apply_orderingERKNS_6vectorINS2_8handle_tENS_9allocatorIS7_EEEEbE4$_26Lb0EE4wrapERKSD_EUlDpOT_E_NS8_ISK_EEFbRKS7_EE7__cloneEv', symObjAddr: 0x2E078, symBinAddr: 0x10002489C, symSize: 0x34 }
  - { offsetInCU: 0x1F1AEA, offset: 0x455D54, size: 0x8, addend: 0x0, symName: '__ZNKSt3__110__function6__funcIZN11handlegraph20BoolReturningWrapperIZN2vg2VG14apply_orderingERKNS_6vectorINS2_8handle_tENS_9allocatorIS7_EEEEbE4$_26Lb0EE4wrapERKSD_EUlDpOT_E_NS8_ISK_EEFbRKS7_EE7__cloneEPNS0_6__baseISO_EE', symObjAddr: 0x2E0AC, symBinAddr: 0x1000248D0, symSize: 0x14 }
  - { offsetInCU: 0x1F1B5A, offset: 0x455DC4, size: 0x8, addend: 0x0, symName: '__ZNSt3__110__function6__funcIZN11handlegraph20BoolReturningWrapperIZN2vg2VG14apply_orderingERKNS_6vectorINS2_8handle_tENS_9allocatorIS7_EEEEbE4$_26Lb0EE4wrapERKSD_EUlDpOT_E_NS8_ISK_EEFbRKS7_EE7destroyEv', symObjAddr: 0x2E0C0, symBinAddr: 0x1000248E4, symSize: 0x4 }
  - { offsetInCU: 0x1F1BAD, offset: 0x455E17, size: 0x8, addend: 0x0, symName: '__ZNSt3__110__function6__funcIZN11handlegraph20BoolReturningWrapperIZN2vg2VG14apply_orderingERKNS_6vectorINS2_8handle_tENS_9allocatorIS7_EEEEbE4$_26Lb0EE4wrapERKSD_EUlDpOT_E_NS8_ISK_EEFbRKS7_EE18destroy_deallocateEv', symObjAddr: 0x2E0C4, symBinAddr: 0x1000248E8, symSize: 0x4 }
  - { offsetInCU: 0x1F1BE3, offset: 0x455E4D, size: 0x8, addend: 0x0, symName: '__ZNSt3__110__function6__funcIZN11handlegraph20BoolReturningWrapperIZN2vg2VG14apply_orderingERKNS_6vectorINS2_8handle_tENS_9allocatorIS7_EEEEbE4$_26Lb0EE4wrapERKSD_EUlDpOT_E_NS8_ISK_EEFbRKS7_EE18destroy_deallocateEv', symObjAddr: 0x2E0C4, symBinAddr: 0x1000248E8, symSize: 0x4 }
  - { offsetInCU: 0x1F1C05, offset: 0x455E6F, size: 0x8, addend: 0x0, symName: '__ZNSt3__110__function6__funcIZN11handlegraph20BoolReturningWrapperIZN2vg2VG14apply_orderingERKNS_6vectorINS2_8handle_tENS_9allocatorIS7_EEEEbE4$_26Lb0EE4wrapERKSD_EUlDpOT_E_NS8_ISK_EEFbRKS7_EE18destroy_deallocateEv', symObjAddr: 0x2E0C4, symBinAddr: 0x1000248E8, symSize: 0x4 }
  - { offsetInCU: 0x1F1C30, offset: 0x455E9A, size: 0x8, addend: 0x0, symName: '__ZNSt3__110__function6__funcIZN11handlegraph20BoolReturningWrapperIZN2vg2VG14apply_orderingERKNS_6vectorINS2_8handle_tENS_9allocatorIS7_EEEEbE4$_26Lb0EE4wrapERKSD_EUlDpOT_E_NS8_ISK_EEFbRKS7_EE18destroy_deallocateEv', symObjAddr: 0x2E0C4, symBinAddr: 0x1000248E8, symSize: 0x4 }
  - { offsetInCU: 0x1F1C56, offset: 0x455EC0, size: 0x8, addend: 0x0, symName: '__ZNSt3__110__function6__funcIZN11handlegraph20BoolReturningWrapperIZN2vg2VG14apply_orderingERKNS_6vectorINS2_8handle_tENS_9allocatorIS7_EEEEbE4$_26Lb0EE4wrapERKSD_EUlDpOT_E_NS8_ISK_EEFbRKS7_EE18destroy_deallocateEv', symObjAddr: 0x2E0C4, symBinAddr: 0x1000248E8, symSize: 0x4 }
  - { offsetInCU: 0x1F1D5F, offset: 0x455FC9, size: 0x8, addend: 0x0, symName: '__ZNSt3__110__function6__funcIZN11handlegraph20BoolReturningWrapperIZN2vg2VG14apply_orderingERKNS_6vectorINS2_8handle_tENS_9allocatorIS7_EEEEbE4$_26Lb0EE4wrapERKSD_EUlDpOT_E_NS8_ISK_EEFbRKS7_EEclESN_', symObjAddr: 0x2E0C8, symBinAddr: 0x1000248EC, symSize: 0x60 }
  - { offsetInCU: 0x1F1E37, offset: 0x4560A1, size: 0x8, addend: 0x0, symName: '__ZNKSt3__110__function6__funcIZN11handlegraph20BoolReturningWrapperIZN2vg2VG14apply_orderingERKNS_6vectorINS2_8handle_tENS_9allocatorIS7_EEEEbE4$_26Lb0EE4wrapERKSD_EUlDpOT_E_NS8_ISK_EEFbRKS7_EE6targetERKSt9type_info', symObjAddr: 0x2E128, symBinAddr: 0x10002494C, symSize: 0x60 }
  - { offsetInCU: 0x1F1E42, offset: 0x4560AC, size: 0x8, addend: 0x0, symName: __ZNKSt3__16vectorIN11handlegraph8handle_tENS_9allocatorIS2_EEE20__throw_out_of_rangeB8ue170006Ev, symObjAddr: 0x2E194, symBinAddr: 0x1000249B8, symSize: 0x14 }
  - { offsetInCU: 0x1F1E77, offset: 0x4560E1, size: 0x8, addend: 0x0, symName: '__ZNKSt3__110__function6__funcIZN11handlegraph20BoolReturningWrapperIZN2vg2VG14apply_orderingERKNS_6vectorINS2_8handle_tENS_9allocatorIS7_EEEEbE4$_26Lb0EE4wrapERKSD_EUlDpOT_E_NS8_ISK_EEFbRKS7_EE6targetERKSt9type_info', symObjAddr: 0x2E128, symBinAddr: 0x10002494C, symSize: 0x60 }
  - { offsetInCU: 0x1F1EFD, offset: 0x456167, size: 0x8, addend: 0x0, symName: '__ZNKSt3__110__function6__funcIZN11handlegraph20BoolReturningWrapperIZN2vg2VG14apply_orderingERKNS_6vectorINS2_8handle_tENS_9allocatorIS7_EEEEbE4$_26Lb0EE4wrapERKSD_EUlDpOT_E_NS8_ISK_EEFbRKS7_EE11target_typeEv', symObjAddr: 0x2E188, symBinAddr: 0x1000249AC, symSize: 0xC }
  - { offsetInCU: 0x1F7D60, offset: 0x45BFCA, size: 0x8, addend: 0x0, symName: __ZN6google8protobuf8internal20RepeatedPtrFieldBase12SwapElementsEii.cold.2, symObjAddr: 0x5E5D0, symBinAddr: 0x10002B010, symSize: 0x3C }
  - { offsetInCU: 0x1F7DD5, offset: 0x45C03F, size: 0x8, addend: 0x0, symName: __ZN6google8protobuf8internal20RepeatedPtrFieldBase12SwapElementsEii.cold.1, symObjAddr: 0x5E594, symBinAddr: 0x10002AFD4, symSize: 0x3C }
  - { offsetInCU: 0x1F7E4A, offset: 0x45C0B4, size: 0x8, addend: 0x0, symName: __ZN3spp16sparse_hashtableINSt3__14pairIKNS2_IN2vg8NodeSideES4_EEPNS3_4EdgeEEES5_NS3_9wang_hashIS5_vEENS_15sparse_hash_mapIS5_S8_SB_NS1_8equal_toIS5_EENS_14libc_allocatorIS9_EEE9SelectKeyENSH_6SetKeyESE_SG_E4findERS6_.cold.1, symObjAddr: 0x5E60C, symBinAddr: 0x10002B04C, symSize: 0x24 }
  - { offsetInCU: 0x1F7EEB, offset: 0x45C155, size: 0x8, addend: 0x0, symName: _.omp_outlined..94, symObjAddr: 0x36E34, symBinAddr: 0x100024D24, symSize: 0x178 }
  - { offsetInCU: 0x1F80E5, offset: 0x45C34F, size: 0x8, addend: 0x0, symName: __ZN3spp11sparsetableINSt3__14pairIKPN2vg4EdgeEiEENS_14libc_allocatorIS7_EEE6GrpPos5eraseERSA_, symObjAddr: 0x3717C, symBinAddr: 0x100024FE4, symSize: 0xCC }
  - { offsetInCU: 0x1F82E5, offset: 0x45C54F, size: 0x8, addend: 0x0, symName: __ZN3spp11sparsegroupINSt3__14pairIKPN2vg4EdgeEiEENS_14libc_allocatorIS7_EEE16_group_erase_auxERS9_hNS_17integral_constantIbLb1EEE, symObjAddr: 0x37248, symBinAddr: 0x1000250B0, symSize: 0xD0 }
  - { offsetInCU: 0x1F82F0, offset: 0x45C55A, size: 0x8, addend: 0x0, symName: __ZN3spp16sparse_hashtableINSt3__14pairIKPN2vg4EdgeEiEES5_NS3_9wang_hashIS5_vEENS_15sparse_hash_mapIS5_iS9_NS1_8equal_toIS5_EENS_14libc_allocatorIS7_EEE9SelectKeyENSF_6SetKeyESC_SE_E5eraseERS6_.cold.1, symObjAddr: 0x5E630, symBinAddr: 0x10002B070, symSize: 0x24 }
  - { offsetInCU: 0x1F83BE, offset: 0x45C628, size: 0x8, addend: 0x0, symName: __ZN3spp11sparsegroupINSt3__14pairIKPN2vg4EdgeEiEENS_14libc_allocatorIS7_EEE16_group_erase_auxERS9_hNS_17integral_constantIbLb1EEE, symObjAddr: 0x37248, symBinAddr: 0x1000250B0, symSize: 0xD0 }
  - { offsetInCU: 0x1F855A, offset: 0x45C7C4, size: 0x8, addend: 0x0, symName: __ZN6google8protobuf8internal20RepeatedPtrFieldBase22UnsafeArenaReleaseLastINS0_16RepeatedPtrFieldIN2vg4EdgeEE11TypeHandlerEEEPNT_4TypeEv, symObjAddr: 0x37318, symBinAddr: 0x100025180, symSize: 0x88 }
  - { offsetInCU: 0x1F8565, offset: 0x45C7CF, size: 0x8, addend: 0x0, symName: __ZN3spp11sparsetableINSt3__14pairIKPN2vg4EdgeEiEENS_14libc_allocatorIS7_EEE6GrpPos5eraseERSA_.cold.1, symObjAddr: 0x5E654, symBinAddr: 0x10002B094, symSize: 0x24 }
  - { offsetInCU: 0x1F857D, offset: 0x45C7E7, size: 0x8, addend: 0x0, symName: __ZN3spp11sparsegroupINSt3__14pairIKPN2vg4EdgeEiEENS_14libc_allocatorIS7_EEE16_group_erase_auxERS9_hNS_17integral_constantIbLb1EEE.cold.1, symObjAddr: 0x5E678, symBinAddr: 0x10002B0B8, symSize: 0x24 }
  - { offsetInCU: 0x1F8595, offset: 0x45C7FF, size: 0x8, addend: 0x0, symName: __ZN3spp11sparsegroupINSt3__14pairIKPN2vg4EdgeEiEENS_14libc_allocatorIS7_EEE16_group_erase_auxERS9_hNS_17integral_constantIbLb1EEE.cold.2, symObjAddr: 0x5E69C, symBinAddr: 0x10002B0DC, symSize: 0x24 }
  - { offsetInCU: 0x1F85AD, offset: 0x45C817, size: 0x8, addend: 0x0, symName: __ZN6google8protobuf8internal20RepeatedPtrFieldBase22UnsafeArenaReleaseLastINS0_16RepeatedPtrFieldIN2vg4EdgeEE11TypeHandlerEEEPNT_4TypeEv.cold.2, symObjAddr: 0x5E6FC, symBinAddr: 0x10002B13C, symSize: 0x3C }
  - { offsetInCU: 0x1F8604, offset: 0x45C86E, size: 0x8, addend: 0x0, symName: __ZN6google8protobuf8internal20RepeatedPtrFieldBase22UnsafeArenaReleaseLastINS0_16RepeatedPtrFieldIN2vg4EdgeEE11TypeHandlerEEEPNT_4TypeEv.cold.1, symObjAddr: 0x5E6C0, symBinAddr: 0x10002B100, symSize: 0x3C }
  - { offsetInCU: 0x1F8679, offset: 0x45C8E3, size: 0x8, addend: 0x0, symName: __ZN3spp11sparsetableINSt3__14pairIKNS2_IN2vg8NodeSideES4_EEPNS3_4EdgeEEENS_14libc_allocatorIS9_EEE6GrpPos5eraseERSC_, symObjAddr: 0x37728, symBinAddr: 0x100025430, symSize: 0xCC }
  - { offsetInCU: 0x1F8879, offset: 0x45CAE3, size: 0x8, addend: 0x0, symName: __ZN3spp11sparsegroupINSt3__14pairIKNS2_IN2vg8NodeSideES4_EEPNS3_4EdgeEEENS_14libc_allocatorIS9_EEE16_group_erase_auxERSB_hNS_17integral_constantIbLb0EEE, symObjAddr: 0x377F4, symBinAddr: 0x1000254FC, symSize: 0x340 }
  - { offsetInCU: 0x1F8884, offset: 0x45CAEE, size: 0x8, addend: 0x0, symName: __ZN3spp16sparse_hashtableINSt3__14pairIKNS2_IN2vg8NodeSideES4_EEPNS3_4EdgeEEES5_NS3_9wang_hashIS5_vEENS_15sparse_hash_mapIS5_S8_SB_NS1_8equal_toIS5_EENS_14libc_allocatorIS9_EEE9SelectKeyENSH_6SetKeyESE_SG_E5eraseERS6_.cold.1, symObjAddr: 0x5E738, symBinAddr: 0x10002B178, symSize: 0x24 }
  - { offsetInCU: 0x1F8952, offset: 0x45CBBC, size: 0x8, addend: 0x0, symName: __ZN3spp11sparsegroupINSt3__14pairIKNS2_IN2vg8NodeSideES4_EEPNS3_4EdgeEEENS_14libc_allocatorIS9_EEE16_group_erase_auxERSB_hNS_17integral_constantIbLb0EEE, symObjAddr: 0x377F4, symBinAddr: 0x1000254FC, symSize: 0x340 }
  - { offsetInCU: 0x1F8F1A, offset: 0x45D184, size: 0x8, addend: 0x0, symName: __ZN3spp11sparsetableINSt3__14pairIKNS2_IN2vg8NodeSideES4_EEPNS3_4EdgeEEENS_14libc_allocatorIS9_EEE6GrpPos5eraseERSC_.cold.1, symObjAddr: 0x5E75C, symBinAddr: 0x10002B19C, symSize: 0x24 }
  - { offsetInCU: 0x1F8F32, offset: 0x45D19C, size: 0x8, addend: 0x0, symName: __ZN3spp11sparsegroupINSt3__14pairIKNS2_IN2vg8NodeSideES4_EEPNS3_4EdgeEEENS_14libc_allocatorIS9_EEE16_group_erase_auxERSB_hNS_17integral_constantIbLb0EEE.cold.1, symObjAddr: 0x5E780, symBinAddr: 0x10002B1C0, symSize: 0x24 }
  - { offsetInCU: 0x1F8F4A, offset: 0x45D1B4, size: 0x8, addend: 0x0, symName: __ZN3spp11sparsetableINSt3__14pairIKxNS1_6vectorINS2_IxbEENS1_9allocatorIS5_EEEEEENS_14libc_allocatorIS9_EEE6GrpPos5eraseERSC_, symObjAddr: 0x37C7C, symBinAddr: 0x100025984, symSize: 0xE4 }
  - { offsetInCU: 0x1F92E9, offset: 0x45D553, size: 0x8, addend: 0x0, symName: __ZN3spp11sparsegroupINSt3__14pairIKxNS1_6vectorINS2_IxbEENS1_9allocatorIS5_EEEEEENS_14libc_allocatorIS9_EEE16_group_erase_auxERSB_hNS_17integral_constantIbLb0EEE, symObjAddr: 0x37D60, symBinAddr: 0x100025A68, symSize: 0x31C }
  - { offsetInCU: 0x1F92F4, offset: 0x45D55E, size: 0x8, addend: 0x0, symName: __ZN3spp16sparse_hashtableINSt3__14pairIKxNS1_6vectorINS2_IxbEENS1_9allocatorIS5_EEEEEExN2vg9wang_hashIxvEENS_15sparse_hash_mapIxS8_SC_NS1_8equal_toIxEENS_14libc_allocatorIS9_EEE9SelectKeyENSI_6SetKeyESF_SH_E5eraseERS3_.cold.1, symObjAddr: 0x5E7A4, symBinAddr: 0x10002B1E4, symSize: 0x24 }
  - { offsetInCU: 0x1F93C2, offset: 0x45D62C, size: 0x8, addend: 0x0, symName: __ZN3spp11sparsegroupINSt3__14pairIKxNS1_6vectorINS2_IxbEENS1_9allocatorIS5_EEEEEENS_14libc_allocatorIS9_EEE16_group_erase_auxERSB_hNS_17integral_constantIbLb0EEE, symObjAddr: 0x37D60, symBinAddr: 0x100025A68, symSize: 0x31C }
  - { offsetInCU: 0x1F9DEF, offset: 0x45E059, size: 0x8, addend: 0x0, symName: __ZN3spp11sparsetableINSt3__14pairIKxNS1_6vectorINS2_IxbEENS1_9allocatorIS5_EEEEEENS_14libc_allocatorIS9_EEE6GrpPos5eraseERSC_.cold.1, symObjAddr: 0x5E7C8, symBinAddr: 0x10002B208, symSize: 0x24 }
  - { offsetInCU: 0x1F9E07, offset: 0x45E071, size: 0x8, addend: 0x0, symName: __ZN3spp11sparsegroupINSt3__14pairIKxNS1_6vectorINS2_IxbEENS1_9allocatorIS5_EEEEEENS_14libc_allocatorIS9_EEE16_group_erase_auxERSB_hNS_17integral_constantIbLb0EEE.cold.1, symObjAddr: 0x5E7EC, symBinAddr: 0x10002B22C, symSize: 0x24 }
  - { offsetInCU: 0x1F9EA8, offset: 0x45E112, size: 0x8, addend: 0x0, symName: _.omp_outlined..98, symObjAddr: 0x382A8, symBinAddr: 0x100025D84, symSize: 0x1A0 }
  - { offsetInCU: 0x1FBB35, offset: 0x45FD9F, size: 0x8, addend: 0x0, symName: __ZN3spp11sparsetableINSt3__14pairIKPN2vg4NodeEiEENS_14libc_allocatorIS7_EEE6GrpPos5eraseERSA_, symObjAddr: 0x390E0, symBinAddr: 0x1000261EC, symSize: 0xCC }
  - { offsetInCU: 0x1FBD35, offset: 0x45FF9F, size: 0x8, addend: 0x0, symName: __ZN3spp11sparsegroupINSt3__14pairIKPN2vg4NodeEiEENS_14libc_allocatorIS7_EEE16_group_erase_auxERS9_hNS_17integral_constantIbLb1EEE, symObjAddr: 0x391AC, symBinAddr: 0x1000262B8, symSize: 0xD0 }
  - { offsetInCU: 0x1FBD40, offset: 0x45FFAA, size: 0x8, addend: 0x0, symName: __ZN3spp16sparse_hashtableINSt3__14pairIKPN2vg4NodeEiEES5_NS3_9wang_hashIS5_vEENS_15sparse_hash_mapIS5_iS9_NS1_8equal_toIS5_EENS_14libc_allocatorIS7_EEE9SelectKeyENSF_6SetKeyESC_SE_E5eraseERS6_.cold.1, symObjAddr: 0x5E810, symBinAddr: 0x10002B250, symSize: 0x24 }
  - { offsetInCU: 0x1FBE0E, offset: 0x460078, size: 0x8, addend: 0x0, symName: __ZN3spp11sparsegroupINSt3__14pairIKPN2vg4NodeEiEENS_14libc_allocatorIS7_EEE16_group_erase_auxERS9_hNS_17integral_constantIbLb1EEE, symObjAddr: 0x391AC, symBinAddr: 0x1000262B8, symSize: 0xD0 }
  - { offsetInCU: 0x1FBFAA, offset: 0x460214, size: 0x8, addend: 0x0, symName: __ZN6google8protobuf8internal20RepeatedPtrFieldBase22UnsafeArenaReleaseLastINS0_16RepeatedPtrFieldIN2vg4NodeEE11TypeHandlerEEEPNT_4TypeEv, symObjAddr: 0x3927C, symBinAddr: 0x100026388, symSize: 0x88 }
  - { offsetInCU: 0x1FBFB5, offset: 0x46021F, size: 0x8, addend: 0x0, symName: __ZN3spp11sparsetableINSt3__14pairIKPN2vg4NodeEiEENS_14libc_allocatorIS7_EEE6GrpPos5eraseERSA_.cold.1, symObjAddr: 0x5E834, symBinAddr: 0x10002B274, symSize: 0x24 }
  - { offsetInCU: 0x1FBFCD, offset: 0x460237, size: 0x8, addend: 0x0, symName: __ZN3spp11sparsegroupINSt3__14pairIKPN2vg4NodeEiEENS_14libc_allocatorIS7_EEE16_group_erase_auxERS9_hNS_17integral_constantIbLb1EEE.cold.1, symObjAddr: 0x5E858, symBinAddr: 0x10002B298, symSize: 0x24 }
  - { offsetInCU: 0x1FBFE5, offset: 0x46024F, size: 0x8, addend: 0x0, symName: __ZN3spp11sparsegroupINSt3__14pairIKPN2vg4NodeEiEENS_14libc_allocatorIS7_EEE16_group_erase_auxERS9_hNS_17integral_constantIbLb1EEE.cold.2, symObjAddr: 0x5E87C, symBinAddr: 0x10002B2BC, symSize: 0x24 }
  - { offsetInCU: 0x1FBFFD, offset: 0x460267, size: 0x8, addend: 0x0, symName: __ZN6google8protobuf8internal20RepeatedPtrFieldBase22UnsafeArenaReleaseLastINS0_16RepeatedPtrFieldIN2vg4NodeEE11TypeHandlerEEEPNT_4TypeEv.cold.2, symObjAddr: 0x5E8DC, symBinAddr: 0x10002B31C, symSize: 0x3C }
  - { offsetInCU: 0x1FC054, offset: 0x4602BE, size: 0x8, addend: 0x0, symName: __ZN6google8protobuf8internal20RepeatedPtrFieldBase22UnsafeArenaReleaseLastINS0_16RepeatedPtrFieldIN2vg4NodeEE11TypeHandlerEEEPNT_4TypeEv.cold.1, symObjAddr: 0x5E8A0, symBinAddr: 0x10002B2E0, symSize: 0x3C }
  - { offsetInCU: 0x20FCAB, offset: 0x473F15, size: 0x8, addend: 0x0, symName: _OUTLINED_FUNCTION_0, symObjAddr: 0x5EB94, symBinAddr: 0x100026594, symSize: 0x14 }
  - { offsetInCU: 0x20FCC3, offset: 0x473F2D, size: 0x8, addend: 0x0, symName: _OUTLINED_FUNCTION_1, symObjAddr: 0x5EBA8, symBinAddr: 0x1000265A8, symSize: 0x8 }
  - { offsetInCU: 0x20FCDB, offset: 0x473F45, size: 0x8, addend: 0x0, symName: _OUTLINED_FUNCTION_2, symObjAddr: 0x5EBB0, symBinAddr: 0x1000265B0, symSize: 0xC }
  - { offsetInCU: 0x20FCF3, offset: 0x473F5D, size: 0x8, addend: 0x0, symName: _OUTLINED_FUNCTION_3, symObjAddr: 0x5EBBC, symBinAddr: 0x1000265BC, symSize: 0xC }
  - { offsetInCU: 0x20FD0B, offset: 0x473F75, size: 0x8, addend: 0x0, symName: _OUTLINED_FUNCTION_4, symObjAddr: 0x5EBC8, symBinAddr: 0x1000265C8, symSize: 0xC }
  - { offsetInCU: 0x20FD23, offset: 0x473F8D, size: 0x8, addend: 0x0, symName: _OUTLINED_FUNCTION_5, symObjAddr: 0x5EBD4, symBinAddr: 0x1000265D4, symSize: 0x8 }
  - { offsetInCU: 0x20FD3B, offset: 0x473FA5, size: 0x8, addend: 0x0, symName: _OUTLINED_FUNCTION_6, symObjAddr: 0x5EBDC, symBinAddr: 0x1000265DC, symSize: 0x8 }
  - { offsetInCU: 0x20FD53, offset: 0x473FBD, size: 0x8, addend: 0x0, symName: _OUTLINED_FUNCTION_7, symObjAddr: 0x5EBE4, symBinAddr: 0x1000265E4, symSize: 0x8 }
  - { offsetInCU: 0x20FD6B, offset: 0x473FD5, size: 0x8, addend: 0x0, symName: _OUTLINED_FUNCTION_8, symObjAddr: 0x5EBEC, symBinAddr: 0x1000265EC, symSize: 0x8 }
  - { offsetInCU: 0x20FD83, offset: 0x473FED, size: 0x8, addend: 0x0, symName: _OUTLINED_FUNCTION_9, symObjAddr: 0x5EBF4, symBinAddr: 0x1000265F4, symSize: 0x8 }
  - { offsetInCU: 0x20FD9B, offset: 0x474005, size: 0x8, addend: 0x0, symName: _OUTLINED_FUNCTION_10, symObjAddr: 0x5EBFC, symBinAddr: 0x1000265FC, symSize: 0xC }
  - { offsetInCU: 0x20FDB3, offset: 0x47401D, size: 0x8, addend: 0x0, symName: _OUTLINED_FUNCTION_11, symObjAddr: 0x5EC08, symBinAddr: 0x100026608, symSize: 0x8 }
  - { offsetInCU: 0x20FDCB, offset: 0x474035, size: 0x8, addend: 0x0, symName: _OUTLINED_FUNCTION_12, symObjAddr: 0x5EC10, symBinAddr: 0x100026610, symSize: 0x8 }
  - { offsetInCU: 0x20FDE3, offset: 0x47404D, size: 0x8, addend: 0x0, symName: _OUTLINED_FUNCTION_13, symObjAddr: 0x5EC18, symBinAddr: 0x100026618, symSize: 0x8 }
  - { offsetInCU: 0x20FDFB, offset: 0x474065, size: 0x8, addend: 0x0, symName: _OUTLINED_FUNCTION_14, symObjAddr: 0x5EC20, symBinAddr: 0x100026620, symSize: 0x8 }
  - { offsetInCU: 0x20FE13, offset: 0x47407D, size: 0x8, addend: 0x0, symName: _OUTLINED_FUNCTION_15, symObjAddr: 0x5EC28, symBinAddr: 0x100026628, symSize: 0x8 }
  - { offsetInCU: 0x20FE2B, offset: 0x474095, size: 0x8, addend: 0x0, symName: _OUTLINED_FUNCTION_16, symObjAddr: 0x5EC30, symBinAddr: 0x100026630, symSize: 0xC }
  - { offsetInCU: 0x20FE43, offset: 0x4740AD, size: 0x8, addend: 0x0, symName: _OUTLINED_FUNCTION_17, symObjAddr: 0x5EC3C, symBinAddr: 0x10002663C, symSize: 0xC }
  - { offsetInCU: 0x20FE5B, offset: 0x4740C5, size: 0x8, addend: 0x0, symName: _OUTLINED_FUNCTION_18, symObjAddr: 0x5EC48, symBinAddr: 0x100026648, symSize: 0x8 }
  - { offsetInCU: 0x20FE73, offset: 0x4740DD, size: 0x8, addend: 0x0, symName: _OUTLINED_FUNCTION_19, symObjAddr: 0x5EC50, symBinAddr: 0x100026650, symSize: 0x8 }
  - { offsetInCU: 0x20FE8B, offset: 0x4740F5, size: 0x8, addend: 0x0, symName: _OUTLINED_FUNCTION_20, symObjAddr: 0x5EC58, symBinAddr: 0x100026658, symSize: 0x8 }
  - { offsetInCU: 0x20FEA3, offset: 0x47410D, size: 0x8, addend: 0x0, symName: _OUTLINED_FUNCTION_21, symObjAddr: 0x5EC60, symBinAddr: 0x100026660, symSize: 0xC }
  - { offsetInCU: 0x20FEBB, offset: 0x474125, size: 0x8, addend: 0x0, symName: _OUTLINED_FUNCTION_22, symObjAddr: 0x5EC6C, symBinAddr: 0x10002666C, symSize: 0x10 }
  - { offsetInCU: 0x20FED3, offset: 0x47413D, size: 0x8, addend: 0x0, symName: _OUTLINED_FUNCTION_23, symObjAddr: 0x5EC7C, symBinAddr: 0x10002667C, symSize: 0x8 }
  - { offsetInCU: 0x20FEEB, offset: 0x474155, size: 0x8, addend: 0x0, symName: _OUTLINED_FUNCTION_24, symObjAddr: 0x5EC84, symBinAddr: 0x100026684, symSize: 0x8 }
  - { offsetInCU: 0x20FF03, offset: 0x47416D, size: 0x8, addend: 0x0, symName: _OUTLINED_FUNCTION_25, symObjAddr: 0x5EC8C, symBinAddr: 0x10002668C, symSize: 0x8 }
  - { offsetInCU: 0x20FF1B, offset: 0x474185, size: 0x8, addend: 0x0, symName: _OUTLINED_FUNCTION_26, symObjAddr: 0x5EC94, symBinAddr: 0x100026694, symSize: 0x8 }
  - { offsetInCU: 0x20FF33, offset: 0x47419D, size: 0x8, addend: 0x0, symName: _OUTLINED_FUNCTION_27, symObjAddr: 0x5EC9C, symBinAddr: 0x10002669C, symSize: 0xC }
  - { offsetInCU: 0x20FF4B, offset: 0x4741B5, size: 0x8, addend: 0x0, symName: _OUTLINED_FUNCTION_28, symObjAddr: 0x5ECA8, symBinAddr: 0x1000266A8, symSize: 0xC }
  - { offsetInCU: 0x20FF63, offset: 0x4741CD, size: 0x8, addend: 0x0, symName: _OUTLINED_FUNCTION_29, symObjAddr: 0x5ECB4, symBinAddr: 0x1000266B4, symSize: 0xC }
  - { offsetInCU: 0x20FF7B, offset: 0x4741E5, size: 0x8, addend: 0x0, symName: _OUTLINED_FUNCTION_30, symObjAddr: 0x5ECC0, symBinAddr: 0x1000266C0, symSize: 0x8 }
  - { offsetInCU: 0x30, offset: 0x474CEA, size: 0x8, addend: 0x0, symName: __ZL11init_ram_fs, symObjAddr: 0x113CAC, symBinAddr: 0x100045130, symSize: 0x0 }
  - { offsetInCU: 0x5DF6, offset: 0x47D8B6, size: 0x8, addend: 0x0, symName: __ZN11ProgressBarC1EmPKcRNSt3__113basic_ostreamIcNS2_11char_traitsIcEEEE, symObjAddr: 0x54, symBinAddr: 0x100026768, symSize: 0x4C }
  - { offsetInCU: 0x5F2F, offset: 0x47D9EF, size: 0x8, addend: 0x0, symName: __ZN11ProgressBar13ClearBarFieldEv, symObjAddr: 0x164, symBinAddr: 0x1000267B4, symSize: 0xC0 }
  - { offsetInCU: 0x667B, offset: 0x47E13B, size: 0x8, addend: 0x0, symName: __ZN11ProgressBar10ProgressedEm, symObjAddr: 0x5B0, symBinAddr: 0x100026874, symSize: 0x28C }
  - { offsetInCU: 0x30, offset: 0x47E632, size: 0x8, addend: 0x0, symName: __ZL11init_ram_fs, symObjAddr: 0x72C77, symBinAddr: 0x100045131, symSize: 0x0 }
  - { offsetInCU: 0x37, offset: 0x481090, size: 0x8, addend: 0x0, symName: __ZL11init_ram_fs, symObjAddr: 0x11BE08, symBinAddr: 0x100045132, symSize: 0x0 }
  - { offsetInCU: 0xD80, offset: 0x481DD9, size: 0x8, addend: 0x0, symName: __ZN4gcsa8Alphabet17DEFAULT_CHAR2COMPE, symObjAddr: 0x11BE10, symBinAddr: 0x1000452A8, symSize: 0x0 }
  - { offsetInCU: 0xD94, offset: 0x481DED, size: 0x8, addend: 0x0, symName: __ZN4gcsa8Alphabet17DEFAULT_COMP2CHARE, symObjAddr: 0x11BE30, symBinAddr: 0x1000452C8, symSize: 0x0 }
  - { offsetInCU: 0xC816, offset: 0x48D86F, size: 0x8, addend: 0x0, symName: __ZN4sdsl10int_vectorILh8EEC1IiEESt16initializer_listIT_E, symObjAddr: 0x0, symBinAddr: 0x100026B3C, symSize: 0x114 }
  - { offsetInCU: 0xE351, offset: 0x48F3AA, size: 0x8, addend: 0x0, symName: __ZN4sdsl10int_vectorILh8EEC1IcEESt16initializer_listIT_E, symObjAddr: 0x1060, symBinAddr: 0x100026C50, symSize: 0x114 }
  - { offsetInCU: 0x37, offset: 0x48F6F8, size: 0x8, addend: 0x0, symName: __ZL11init_ram_fs, symObjAddr: 0x5287E, symBinAddr: 0x100045133, symSize: 0x0 }
  - { offsetInCU: 0x6F, offset: 0x48F730, size: 0x8, addend: 0x0, symName: __ZN4gcsa8TempFile16DEFAULT_TEMP_DIRE, symObjAddr: 0x52888, symBinAddr: 0x1000452E8, symSize: 0x0 }
  - { offsetInCU: 0x89, offset: 0x48F74A, size: 0x8, addend: 0x0, symName: __ZN4gcsa8TempFile8temp_dirE, symObjAddr: 0x528A0, symBinAddr: 0x100045300, symSize: 0x0 }
  - { offsetInCU: 0xA3, offset: 0x48F764, size: 0x8, addend: 0x0, symName: __ZN4gcsa8TempFile7handlerE, symObjAddr: 0x528B8, symBinAddr: 0x100045318, symSize: 0x0 }
  - { offsetInCU: 0x6991, offset: 0x496052, size: 0x8, addend: 0x0, symName: __ZN4gcsa8TempFile7HandlerD1Ev, symObjAddr: 0xBB8, symBinAddr: 0x100026E6C, symSize: 0xA4 }
  - { offsetInCU: 0x37, offset: 0x4964F3, size: 0x8, addend: 0x0, symName: __ZL11init_ram_fs, symObjAddr: 0x57030, symBinAddr: 0x100045134, symSize: 0x0 }
  - { offsetInCU: 0x103, offset: 0x4965BF, size: 0x8, addend: 0x0, symName: __ZN4gbwt7Version10SOURCE_KEYE, symObjAddr: 0x57038, symBinAddr: 0x100045330, symSize: 0x0 }
  - { offsetInCU: 0x117, offset: 0x4965D3, size: 0x8, addend: 0x0, symName: __ZN4gbwt7Version12SOURCE_VALUEE, symObjAddr: 0x57050, symBinAddr: 0x100045348, symSize: 0x0 }
  - { offsetInCU: 0x159, offset: 0x496615, size: 0x8, addend: 0x0, symName: __ZN4gbwt8TempFile16DEFAULT_TEMP_DIRE, symObjAddr: 0x57068, symBinAddr: 0x100045360, symSize: 0x0 }
  - { offsetInCU: 0x173, offset: 0x49662F, size: 0x8, addend: 0x0, symName: __ZN4gbwt8TempFile8temp_dirE, symObjAddr: 0x57080, symBinAddr: 0x100045378, symSize: 0x0 }
  - { offsetInCU: 0x18D, offset: 0x496649, size: 0x8, addend: 0x0, symName: __ZN4gbwt8TempFile13tempfile_lockE, symObjAddr: 0x3300, symBinAddr: 0x1000341E8, symSize: 0x0 }
  - { offsetInCU: 0x1A7, offset: 0x496663, size: 0x8, addend: 0x0, symName: __ZN4gbwt8TempFile7handlerE, symObjAddr: 0x57098, symBinAddr: 0x100045390, symSize: 0x0 }
  - { offsetInCU: 0x6947, offset: 0x49CE03, size: 0x8, addend: 0x0, symName: __ZN4gbwt8TempFile7HandlerD1Ev, symObjAddr: 0xD7C, symBinAddr: 0x100027054, symSize: 0x4 }
  - { offsetInCU: 0x6973, offset: 0x49CE2F, size: 0x8, addend: 0x0, symName: __ZN4gbwt8TempFile7HandlerD2Ev, symObjAddr: 0xD80, symBinAddr: 0x100027058, symSize: 0xD8 }
  - { offsetInCU: 0x6986, offset: 0x49CE42, size: 0x8, addend: 0x0, symName: __ZN4gbwt8TempFile7HandlerD2Ev, symObjAddr: 0xD80, symBinAddr: 0x100027058, symSize: 0xD8 }
  - { offsetInCU: 0x37, offset: 0x49D635, size: 0x8, addend: 0x0, symName: __MergedGlobals, symObjAddr: 0x85E3F8, symBinAddr: 0x100045138, symSize: 0x0 }
  - { offsetInCU: 0x81A7, offset: 0x4A57A5, size: 0x8, addend: 0x0, symName: __ZN4sdsl14binomial_tableILt64EyE4dataE, symObjAddr: 0x7A368, symBinAddr: 0x1000342C0, symSize: 0x0 }
  - { offsetInCU: 0x8224, offset: 0x4A5822, size: 0x8, addend: 0x0, symName: __ZN4sdsl21binomial_coefficientsILt63EE4dataE, symObjAddr: 0x7A2C0, symBinAddr: 0x100034228, symSize: 0x0 }
  - { offsetInCU: 0x13844, offset: 0x4B0E42, size: 0x8, addend: 0x0, symName: __MergedGlobals, symObjAddr: 0x85E3F8, symBinAddr: 0x100045138, symSize: 0x0 }
  - { offsetInCU: 0x13861, offset: 0x4B0E5F, size: 0x8, addend: 0x0, symName: __MergedGlobals, symObjAddr: 0x85E3F8, symBinAddr: 0x100045138, symSize: 0x0 }
  - { offsetInCU: 0x1387E, offset: 0x4B0E7C, size: 0x8, addend: 0x0, symName: __MergedGlobals, symObjAddr: 0x85E3F8, symBinAddr: 0x100045138, symSize: 0x0 }
  - { offsetInCU: 0x3E34A, offset: 0x4DB948, size: 0x8, addend: 0x0, symName: __ZNSt3__119piecewise_constructE, symObjAddr: 0x709E4, symBinAddr: 0x10002E594, symSize: 0x0 }
  - { offsetInCU: 0xFBEB3, offset: 0x5994B1, size: 0x8, addend: 0x0, symName: __ZN2xg9temp_file7HandlerD1Ev, symObjAddr: 0x69CE4, symBinAddr: 0x1000272FC, symSize: 0x4 }
  - { offsetInCU: 0xFBEDE, offset: 0x5994DC, size: 0x8, addend: 0x0, symName: __ZN2xg9temp_file7HandlerD2Ev, symObjAddr: 0x69CE8, symBinAddr: 0x100027300, symSize: 0x23C }
  - { offsetInCU: 0xFBEF2, offset: 0x5994F0, size: 0x8, addend: 0x0, symName: __ZN2xg9temp_file7HandlerD2Ev, symObjAddr: 0x69CE8, symBinAddr: 0x100027300, symSize: 0x23C }
  - { offsetInCU: 0xFD820, offset: 0x59AE1E, size: 0x8, addend: 0x0, symName: __ZN4sdsl14binomial_tableILt64EyE4implC2Ev, symObjAddr: 0x6AC18, symBinAddr: 0x10002753C, symSize: 0x4E8 }
  - { offsetInCU: 0xFD905, offset: 0x59AF03, size: 0x8, addend: 0x0, symName: __ZN4sdsl14binomial_tableILt63EyE4implC2Ev, symObjAddr: 0x6B100, symBinAddr: 0x100027A24, symSize: 0x594 }
  - { offsetInCU: 0x3A0, offset: 0x59B497, size: 0x8, addend: 0x0, symName: __ZN4sdsl4bits6lo_setE, symObjAddr: 0x600, symBinAddr: 0x10002E5F0, symSize: 0x0 }
  - { offsetInCU: 0x37, offset: 0x59DF4C, size: 0x8, addend: 0x0, symName: __ZL11init_ram_fs, symObjAddr: 0xA81D, symBinAddr: 0x1000451C8, symSize: 0x0 }
  - { offsetInCU: 0x7A, offset: 0x59DF8F, size: 0x8, addend: 0x0, symName: __ZN4sdsl5coder11elias_delta4dataE, symObjAddr: 0xA820, symBinAddr: 0x1000453B0, symSize: 0x0 }
  - { offsetInCU: 0x2C38, offset: 0x5A0B4D, size: 0x8, addend: 0x0, symName: __ZN4sdsl5coder11elias_delta4implC2Ev, symObjAddr: 0x0, symBinAddr: 0x1000282DC, symSize: 0x5CC }
  - { offsetInCU: 0x30, offset: 0x5A0E17, size: 0x8, addend: 0x0, symName: __ZL11init_ram_fs, symObjAddr: 0x35FDF, symBinAddr: 0x1000451C9, symSize: 0x0 }
  - { offsetInCU: 0x30, offset: 0x5A386E, size: 0x8, addend: 0x0, symName: __ZL11init_ram_fs, symObjAddr: 0x1866F0, symBinAddr: 0x1000451CA, symSize: 0x0 }
  - { offsetInCU: 0x30, offset: 0x5A62E6, size: 0x8, addend: 0x0, symName: __ZL11init_ram_fs, symObjAddr: 0x877A0, symBinAddr: 0x1000451CB, symSize: 0x0 }
  - { offsetInCU: 0x30, offset: 0x5A8D3D, size: 0x8, addend: 0x0, symName: __ZL11init_ram_fs, symObjAddr: 0x954AC, symBinAddr: 0x1000451CC, symSize: 0x0 }
  - { offsetInCU: 0x30, offset: 0x5AB7B5, size: 0x8, addend: 0x0, symName: __ZL11init_ram_fs, symObjAddr: 0x7A9D1, symBinAddr: 0x1000451CD, symSize: 0x0 }
  - { offsetInCU: 0x37, offset: 0x5AE200, size: 0x8, addend: 0x0, symName: __ZL11init_ram_fs, symObjAddr: 0x7A9F7, symBinAddr: 0x1000451CE, symSize: 0x0 }
  - { offsetInCU: 0x5C7D, offset: 0x5B3E46, size: 0x8, addend: 0x0, symName: __ZN4sdsl18hugepage_allocator14coalesce_blockEPNS_8mm_blockE, symObjAddr: 0x3AAC, symBinAddr: 0x100028A1C, symSize: 0x190 }
  - { offsetInCU: 0x6191, offset: 0x5B435A, size: 0x8, addend: 0x0, symName: __ZN4sdsl18hugepage_allocator20remove_from_free_setEPNS_8mm_blockE, symObjAddr: 0x3C3C, symBinAddr: 0x100028BAC, symSize: 0x178 }
  - { offsetInCU: 0x6A6D, offset: 0x5B4C36, size: 0x8, addend: 0x0, symName: __ZN4sdsl18hugepage_allocator8mm_allocEm, symObjAddr: 0x4780, symBinAddr: 0x100028D24, symSize: 0x284 }
  - { offsetInCU: 0x71A2, offset: 0x5B536B, size: 0x8, addend: 0x0, symName: __ZN4sdsl18hugepage_allocator7mm_freeEPv, symObjAddr: 0x4A04, symBinAddr: 0x100028FA8, symSize: 0x24 }
  - { offsetInCU: 0x729A, offset: 0x5B5463, size: 0x8, addend: 0x0, symName: __ZN4sdsl18hugepage_allocator10mm_reallocEPvm, symObjAddr: 0x4A28, symBinAddr: 0x100028FCC, symSize: 0x2A0 }
  - { offsetInCU: 0x30, offset: 0x5B5AC3, size: 0x8, addend: 0x0, symName: __ZL11init_ram_fs, symObjAddr: 0x1F079, symBinAddr: 0x1000451CF, symSize: 0x0 }
  - { offsetInCU: 0x37, offset: 0x5B8521, size: 0x8, addend: 0x0, symName: __MergedGlobals, symObjAddr: 0x3A370, symBinAddr: 0x1000451D0, symSize: 0x0 }
  - { offsetInCU: 0x11F, offset: 0x5B8609, size: 0x8, addend: 0x0, symName: __ZN4sdsl6ram_fs5m_mapE, symObjAddr: 0x3A318, symBinAddr: 0x1000863B0, symSize: 0x0 }
  - { offsetInCU: 0x642B, offset: 0x5BE915, size: 0x8, addend: 0x0, symName: __ZN4sdsl6ram_fs7m_rlockE, symObjAddr: 0x3A330, symBinAddr: 0x1000863C8, symSize: 0x0 }
  - { offsetInCU: 0x6445, offset: 0x5BE92F, size: 0x8, addend: 0x0, symName: __MergedGlobals, symObjAddr: 0x3A370, symBinAddr: 0x1000451D0, symSize: 0x0 }
  - { offsetInCU: 0x8354, offset: 0x5C083E, size: 0x8, addend: 0x0, symName: __ZN4sdsl18ram_fs_initializerC1Ev, symObjAddr: 0x0, symBinAddr: 0x1000292E4, symSize: 0x80 }
  - { offsetInCU: 0x83A9, offset: 0x5C0893, size: 0x8, addend: 0x0, symName: __ZN4sdsl18ram_fs_initializerD1Ev, symObjAddr: 0x80, symBinAddr: 0x100029364, symSize: 0x14 }
  - { offsetInCU: 0x83D6, offset: 0x5C08C0, size: 0x8, addend: 0x0, symName: __ZN4sdsl18ram_fs_initializerD1Ev, symObjAddr: 0x80, symBinAddr: 0x100029364, symSize: 0x14 }
  - { offsetInCU: 0x8467, offset: 0x5C0951, size: 0x8, addend: 0x0, symName: __ZNSt3__13mapINS_12basic_stringIcNS_11char_traitsIcEENS_9allocatorIcEEEENS_6vectorIcS5_EENS_4lessIS6_EENS4_INS_4pairIKS6_S8_EEEEED1B8ue170006Ev, symObjAddr: 0x94, symBinAddr: 0x100029378, symSize: 0x28 }
  - { offsetInCU: 0x851B, offset: 0x5C0A05, size: 0x8, addend: 0x0, symName: __ZNSt3__16__treeINS_12__value_typeINS_12basic_stringIcNS_11char_traitsIcEENS_9allocatorIcEEEENS_6vectorIcS6_EEEENS_19__map_value_compareIS7_SA_NS_4lessIS7_EELb1EEENS5_ISA_EEE7destroyEPNS_11__tree_nodeISA_PvEE, symObjAddr: 0xBC, symBinAddr: 0x1000293A0, symSize: 0x70 }
  - { offsetInCU: 0x30, offset: 0x5C104C, size: 0x8, addend: 0x0, symName: __ZL11init_ram_fs, symObjAddr: 0x21E9E, symBinAddr: 0x1000451D8, symSize: 0x0 }
  - { offsetInCU: 0x30, offset: 0x5C3AA3, size: 0x8, addend: 0x0, symName: __ZL11init_ram_fs, symObjAddr: 0x439BF, symBinAddr: 0x1000451D9, symSize: 0x0 }
  - { offsetInCU: 0x30, offset: 0x5C650C, size: 0x8, addend: 0x0, symName: __ZL11init_ram_fs, symObjAddr: 0x319FE, symBinAddr: 0x1000451DA, symSize: 0x0 }
...
